(dp0
S'GTAC'
p1
(lp2
I7
aI125
aI132
aI161
aI552
aI1279
aI3188
aI3267
aI3286
aI3514
aI4109
aI4184
aI5251
aI5464
aI5809
aI6188
aI6243
aI7063
aI7118
aI7470
aI7477
aI8102
aI8268
aI8360
aI8644
aI9035
aI9104
aI9539
aI9595
aI9841
aI9953
aI10198
aI10484
aI10505
aI11286
aI11963
aI12318
aI12687
aI12837
aI13035
aI13243
aI13509
aI13640
asS'CGAG'
p3
(lp4
I555
aI630
aI1222
aI2060
aI2073
aI2440
aI3208
aI3416
aI3771
aI3805
aI4003
aI4083
aI4486
aI4579
aI5057
aI5135
aI5277
aI5304
aI5504
aI5887
aI6877
aI7882
aI8080
aI8121
aI8132
aI8320
aI8404
aI8445
aI8895
aI9934
aI10019
aI10050
aI10247
aI10255
aI10291
aI10509
aI11266
aI12219
aI12942
aI12971
aI13475
asS'GTAA'
p5
(lp6
I301
aI516
aI593
aI2657
aI2685
aI2874
aI2931
aI2943
aI3407
aI3419
aI3793
aI3897
aI4071
aI4170
aI4795
aI5060
aI5641
aI5662
aI5996
aI6051
aI6061
aI6367
aI6403
aI6439
aI6553
aI7096
aI7198
aI7222
aI7309
aI7665
aI7912
aI8019
aI8046
aI8051
aI8617
aI8867
aI8886
aI8969
aI9188
aI9194
aI9432
aI9852
aI10085
aI10457
aI10574
aI10582
aI11144
aI11219
aI13109
aI13149
aI13451
asS'CGAA'
p7
(lp8
I661
aI863
aI1075
aI1784
aI2014
aI2112
aI2709
aI3256
aI3367
aI3378
aI3568
aI3750
aI4165
aI4177
aI4629
aI4695
aI4790
aI5019
aI5193
aI5208
aI5783
aI6083
aI6457
aI6538
aI6764
aI6787
aI6830
aI6961
aI8769
aI9646
aI9662
aI10210
aI10270
aI10279
aI11089
aI11391
aI11401
aI11561
aI11897
aI12260
aI12577
aI12800
aI13100
aI13169
aI13376
aI13651
asS'AAAT'
p9
(lp10
I195
aI324
aI361
aI384
aI458
aI588
aI617
aI776
aI835
aI1078
aI1295
aI1777
aI1817
aI1929
aI2135
aI2456
aI2577
aI2604
aI2788
aI3085
aI3946
aI4348
aI4364
aI5003
aI5021
aI5829
aI6020
aI6180
aI6257
aI6290
aI6325
aI6390
aI6418
aI6479
aI6543
aI6631
aI6673
aI6682
aI6740
aI6836
aI7043
aI7075
aI7265
aI7295
aI7371
aI7550
aI7554
aI7625
aI7693
aI7775
aI7877
aI8148
aI8610
aI8713
aI8790
aI8858
aI8863
aI8874
aI8889
aI8931
aI8985
aI9065
aI9121
aI9206
aI9359
aI9508
aI9803
aI9817
aI10361
aI10563
aI10630
aI10730
aI10821
aI10991
aI11091
aI11107
aI11146
aI11260
aI11419
aI11668
aI11899
aI12072
aI12099
aI12148
aI12262
aI12675
aI12739
aI12775
aI13075
aI13405
asS'CGAC'
p11
(lp12
I752
aI1175
aI1269
aI1847
aI1913
aI2036
aI2253
aI2909
aI3573
aI4061
aI4103
aI4373
aI4403
aI4456
aI4765
aI5114
aI5383
aI5405
aI5547
aI5898
aI5931
aI7980
aI8413
aI9786
aI9956
aI10408
aI11482
aI12419
aI12981
aI13257
aI13464
aI13523
aI13569
aI13655
asS'GTAT'
p13
(lp14
I37
aI95
aI949
aI1029
aI1107
aI1252
aI1617
aI2184
aI2224
aI2740
aI3241
aI3316
aI3444
aI3467
aI3841
aI3875
aI4559
aI5053
aI5073
aI5597
aI5615
aI5655
aI5751
aI6276
aI6811
aI6947
aI6999
aI7376
aI7459
aI7501
aI7646
aI7721
aI8064
aI8295
aI8720
aI9056
aI9668
aI9913
aI10008
aI10322
aI11122
aI11840
aI13042
aI13268
asS'AGTG'
p15
(lp16
I137
aI393
aI438
aI504
aI632
aI1012
aI1067
aI1370
aI1425
aI1643
aI1741
aI2317
aI2427
aI2552
aI3125
aI3311
aI3773
aI3807
aI4036
aI4098
aI4245
aI4564
aI4760
aI4775
aI5092
aI5755
aI6013
aI6372
aI6693
aI7288
aI7302
aI7413
aI7529
aI7704
aI8092
aI8117
aI8516
aI8593
aI8952
aI9045
aI9076
aI9723
aI9879
aI10481
aI10511
aI10618
aI10658
aI10663
aI10768
aI10801
aI10882
aI10927
aI11062
aI11499
aI11644
aI11780
aI11859
aI12122
aI12475
aI12489
aI12505
aI12605
aI12715
aI13046
aI13213
aI13471
aI13500
aI13637
asS'AGTA'
p17
(lp18
I36
aI124
aI551
aI899
aI948
aI1028
aI1106
aI1792
aI2684
aI2739
aI2930
aI3187
aI3315
aI3418
aI3466
aI3681
aI4085
aI4127
aI4558
aI5059
aI5250
aI5596
aI5945
aI6050
aI6060
aI6266
aI6395
aI6402
aI6810
aI7031
aI7038
aI7095
aI7117
aI7197
aI7221
aI7452
aI7458
aI7500
aI7664
aI7720
aI8045
aI8359
aI8468
aI8616
aI8719
aI8885
aI9024
aI9034
aI9055
aI9187
aI9231
aI9301
aI9431
aI9538
aI10283
aI10321
aI10456
aI10461
aI10581
aI11121
aI11140
aI11143
aI11218
aI11285
aI11429
aI13034
aI13267
asS'AGTC'
p19
(lp20
I563
aI1100
aI1211
aI1868
aI1953
aI3165
aI3412
aI3832
aI4049
aI4540
aI4864
aI5780
aI6342
aI6883
aI7034
aI7133
aI7563
aI7674
aI7756
aI7855
aI7906
aI8235
aI8572
aI8580
aI8627
aI8846
aI9175
aI9304
aI9451
aI9760
aI9856
aI10166
aI10172
aI10742
aI11308
aI11491
aI11590
aI11725
aI11805
aI12130
aI13318
aI13554
asS'AAAA'
p21
(lp22
I194
aI360
aI383
aI533
aI587
aI833
aI834
aI973
aI974
aI975
aI1003
aI1052
aI1077
aI1494
aI1816
aI2134
aI2480
aI2481
aI2624
aI2625
aI2736
aI2859
aI2879
aI2970
aI2971
aI2972
aI2973
aI3010
aI4421
aI4631
aI4632
aI5032
aI5799
aI5800
aI5801
aI6247
aI6324
aI6369
aI6417
aI6429
aI6478
aI6555
aI6681
aI6738
aI6739
aI6766
aI6767
aI6783
aI6851
aI6861
aI6862
aI7098
aI7099
aI7110
aI7111
aI7112
aI7224
aI7345
aI7346
aI7397
aI7538
aI7539
aI7784
aI8577
aI8600
aI8609
aI8810
aI8857
aI8872
aI8873
aI8888
aI8984
aI9083
aI9120
aI9210
aI9211
aI9212
aI9213
aI9421
aI9816
aI10205
aI10206
aI10629
aI10820
aI10829
aI10830
aI11910
aI11978
aI11979
aI11980
aI12098
aI12138
aI12139
aI12140
aI12146
aI12147
aI12197
aI12198
aI12199
aI12588
aI12589
aI12736
aI12737
aI12738
asS'CGAT'
p23
(lp24
I19
aI69
aI189
aI725
aI850
aI1202
aI1871
aI1884
aI2096
aI2246
aI3199
aI3994
aI4075
aI4239
aI4272
aI4301
aI4336
aI4417
aI4500
aI4723
aI4753
aI4845
aI4867
aI4956
aI5043
aI5331
aI7238
aI7440
aI8026
aI8165
aI9552
aI9589
aI9763
aI9942
aI10304
aI11546
aI11603
aI12748
aI12762
aI12818
aI12976
aI13230
aI13547
asS'AAAC'
p25
(lp26
I622
aI713
aI865
aI955
aI1042
aI1095
aI1230
aI1712
aI2086
aI2120
aI2278
aI2395
aI2761
aI2885
aI2937
aI3029
aI3131
aI3226
aI3341
aI3752
aI4483
aI4633
aI4884
aI5033
aI5427
aI5518
aI5582
aI6109
aI6212
aI6237
aI6430
aI6655
aI6709
aI6784
aI7356
aI7363
aI7432
aI7540
aI7667
aI7681
aI8205
aI8566
aI8794
aI8811
aI9084
aI9108
aI9169
aI9214
aI9779
aI10207
aI10212
aI10625
aI10692
aI10851
aI10886
aI11322
aI11614
aI11648
aI11981
aI12200
aI12590
aI13151
asS'AAAG'
p27
(lp28
I303
aI320
aI436
aI534
aI976
aI1004
aI1026
aI1053
aI1495
aI1718
aI2091
aI2331
aI2482
aI2626
aI2737
aI2840
aI2860
aI2880
aI2974
aI3011
aI3360
aI3428
aI3899
aI4172
aI4422
aI4516
aI4620
aI5287
aI5496
aI5771
aI5802
aI6248
aI6264
aI6370
aI6376
aI6548
aI6556
aI6600
aI6620
aI6768
aI6789
aI6852
aI6863
aI7100
aI7106
aI7113
aI7225
aI7311
aI7347
aI7383
aI7398
aI7420
aI7498
aI7614
aI7702
aI7748
aI7785
aI7820
aI7986
aI8562
aI8578
aI8591
aI8601
aI8619
aI8725
aI8918
aI8995
aI9173
aI9363
aI9401
aI9422
aI9721
aI9758
aI9854
aI10141
aI10180
aI10228
aI10281
aI10459
aI10593
aI10748
aI10799
aI10831
aI10838
aI10977
aI11102
aI11221
aI11227
aI11243
aI11769
aI11784
aI11857
aI11911
aI12012
aI12141
aI12215
aI12242
aI12802
aI13018
aI13211
aI13393
asS'GGTT'
p29
(lp30
I246
aI823
aI2236
aI2746
aI3103
aI3140
aI3211
aI3328
aI3382
aI3635
aI3744
aI3927
aI4229
aI4355
aI4495
aI5218
aI5975
aI7275
aI7424
aI7605
aI7742
aI7964
aI8011
aI8554
aI8679
aI8738
aI9028
aI9070
aI9147
aI9318
aI9487
aI9753
aI9882
aI10235
aI10374
aI10389
aI10717
aI10782
aI11968
aI12392
aI12919
aI13068
aI13234
aI13416
aI13664
asS'AGTT'
p31
(lp32
I254
aI305
aI411
aI890
aI1359
aI2044
aI2381
aI2448
aI2609
aI2750
aI2825
aI3114
aI3397
aI3901
aI3956
aI3972
aI4256
aI5157
aI5306
aI5705
aI5711
aI5844
aI6086
aI6169
aI6380
aI6614
aI7083
aI7258
aI7367
aI7517
aI7917
aI8507
aI8652
aI8700
aI8756
aI8947
aI9234
aI9348
aI9376
aI9403
aI9604
aI9635
aI9918
aI10667
aI11189
aI11771
aI11786
aI12049
aI12560
aI12845
aI13127
aI13183
asS'GTAG'
p33
(lp34
I636
aI797
aI900
aI1209
aI1287
aI1541
aI1793
aI2127
aI2446
aI2855
aI3112
aI3448
aI3665
aI3682
aI3836
aI4034
aI4047
aI4086
aI4128
aI5082
aI5394
aI5485
aI5566
aI5946
aI6167
aI6267
aI6297
aI6396
aI7032
aI7039
aI7446
aI7453
aI7689
aI8090
aI8337
aI8469
aI8717
aI9025
aI9232
aI9302
aI9618
aI10155
aI10284
aI10462
aI11141
aI11283
aI11430
aI12105
aI12492
aI13413
aI13635
asS'GCAC'
p35
(lp36
I232
aI1196
aI1390
aI2103
aI2215
aI2728
aI2784
aI3347
aI3457
aI3559
aI3814
aI4269
aI4343
aI4398
aI4787
aI4880
aI4953
aI5125
aI5197
aI5388
aI5472
aI6016
aI6855
aI7139
aI7522
aI7989
aI8286
aI8408
aI8957
aI9153
aI9599
aI11292
aI11470
aI11989
aI12370
aI12456
aI12495
aI12899
aI13253
aI13272
aI13608
asS'CCGT'
p37
(lp38
I1045
aI1469
aI1615
aI1772
aI1860
aI2125
aI2222
aI2336
aI2529
aI3265
aI3663
aI3798
aI4199
aI4204
aI4854
aI4962
aI5625
aI5749
aI5965
aI6078
aI7566
aI7767
aI8190
aI8967
aI9616
aI10265
aI11518
aI12926
aI13486
aI13517
asS'GAAT'
p39
(lp40
I353
aI490
aI662
aI684
aI915
aI980
aI1536
aI2460
aI2501
aI2567
aI2639
aI2689
aI2847
aI2851
aI2867
aI2986
aI3014
aI3019
aI3847
aI4178
aI4827
aI4907
aI5085
aI5670
aI5774
aI5949
aI6065
aI6539
aI6665
aI6704
aI6731
aI6756
aI6771
aI6831
aI6866
aI7068
aI7314
aI7797
aI7896
aI7954
aI8005
aI8519
aI8622
aI8688
aI8770
aI9126
aI9226
aI9514
aI9647
aI9663
aI9974
aI9995
aI10366
aI10536
aI10554
aI10701
aI10777
aI11113
aI11163
aI11316
aI11392
aI11402
aI11562
aI11661
aI11694
aI11793
aI11914
aI12085
aI12155
aI12228
aI12309
aI13090
aI13101
aI13207
aI13327
asS'TTAG'
p41
(lp42
I252
aI389
aI561
aI897
aI1408
aI1483
aI1523
aI1606
aI1688
aI1866
aI1901
aI1978
aI2748
aI3051
aI3137
aI3676
aI3830
aI4014
aI4093
aI4233
aI4258
aI4297
aI4538
aI4548
aI4646
aI4689
aI4862
aI4993
aI5097
aI5179
aI7519
aI7960
aI8113
aI8308
aI8963
aI8978
aI9137
aI9142
aI9283
aI9346
aI9416
aI9443
aI9511
aI10089
aI10454
aI10616
aI11014
aI11116
aI11272
aI11313
aI12713
aI12821
aI13489
aI13588
aI13622
asS'GGAC'
p43
(lp44
I225
aI1146
aI1375
aI1386
aI1486
aI1612
aI1695
aI1753
aI2070
aI2374
aI2391
aI2955
aI3335
aI3544
aI3601
aI3706
aI3727
aI4437
aI4589
aI4606
aI4639
aI4744
aI5452
aI5501
aI5849
aI5906
aI6281
aI7006
aI7583
aI7593
aI7656
aI8032
aI8135
aI8342
aI8454
aI8501
aI8776
aI8800
aI9570
aI9613
aI9738
aI12064
aI12236
aI12412
aI12485
aI12518
aI12661
aI12952
aI13082
aI13277
asS'TTAC'
p45
(lp46
I356
aI528
aI2420
aI2664
aI2831
aI3657
aI3746
aI4263
aI4870
aI5187
aI5418
aI5680
aI6333
aI6360
aI6502
aI6685
aI7071
aI7282
aI7509
aI7628
aI8317
aI8366
aI8783
aI8806
aI9489
aI9637
aI9685
aI9749
aI10077
aI10936
aI11654
aI11774
aI12007
aI12612
aI12865
aI13093
aI13520
asS'TTAA'
p47
(lp48
I204
aI256
aI369
aI711
aI1492
aI1505
aI1840
aI1927
aI2118
aI2238
aI3105
aI3278
aI3903
aI3951
aI4054
aI4514
aI5336
aI5533
aI5737
aI6107
aI6114
aI6302
aI6462
aI6546
aI6707
aI6834
aI6931
aI7260
aI7369
aI7410
aI8203
aI8450
aI8560
aI8654
aI8855
aI8861
aI8993
aI9017
aI9059
aI9245
aI9395
aI10203
aI10561
aI11125
aI11348
aI11621
aI11767
aI11952
aI11994
aI12136
aI12602
aI12673
aI12921
aI13343
aI13578
asS'GAAC'
p49
(lp50
I314
aI422
aI995
aI1070
aI1128
aI1137
aI1500
aI1557
aI1680
aI1767
aI2113
aI2141
aI2296
aI2592
aI2669
aI2698
aI2818
aI3257
aI3473
aI3569
aI3622
aI3757
aI3916
aI4166
aI4330
aI4611
aI4696
aI4791
aI5205
aI5209
aI5264
aI5372
aI5573
aI5784
aI6002
aI6458
aI6493
aI6646
aI6795
aI6825
aI6915
aI6962
aI7026
aI7173
aI7212
aI7305
aI7545
aI7707
aI8281
aI8596
aI8899
aI8937
aI9097
aI9286
aI9528
aI10119
aI10524
aI10606
aI10805
aI10999
aI11017
aI11083
aI11136
aI11230
aI11406
aI11880
aI12060
aI12784
aI12833
aI12895
aI12936
aI13459
aI13652
asS'GAAA'
p51
(lp52
I193
aI319
aI323
aI382
aI586
aI616
aI621
aI775
aI832
aI864
aI1041
aI1076
aI1094
aI2133
aI2603
aI2735
aI2858
aI2936
aI2969
aI3009
aI3028
aI3225
aI3340
aI3359
aI3751
aI3945
aI4619
aI4630
aI5020
aI5426
aI5495
aI6211
aI6236
aI6323
aI6375
aI6428
aI6477
aI6599
aI6630
aI6737
aI6765
aI6788
aI7042
aI7109
aI7344
aI7355
aI7362
aI7419
aI7497
aI7624
aI7680
aI7692
aI7701
aI7783
aI7819
aI8565
aI8590
aI8608
aI8917
aI8930
aI8983
aI9064
aI9082
aI9358
aI9400
aI9507
aI9720
aI9757
aI9778
aI9815
aI10211
aI10227
aI10280
aI10360
aI10624
aI10747
aI10798
aI10819
aI10885
aI10990
aI11090
aI11242
aI11321
aI11418
aI11613
aI11647
aI11667
aI11783
aI11856
aI11898
aI11977
aI12071
aI12145
aI12196
aI12241
aI12261
aI12774
aI12801
aI13404
asS'GAAG'
p53
(lp54
I350
aI487
aI575
aI877
aI1010
aI1526
aI1785
aI2015
aI2266
aI2710
aI2928
aI3046
aI3062
aI3123
aI3170
aI3325
aI3368
aI3379
aI3685
aI3724
aI3883
aI4096
aI4224
aI4616
aI5100
aI5194
aI5290
aI5488
aI5594
aI5709
aI6084
aI6411
aI6881
aI7164
aI7170
aI7193
aI7256
aI7341
aI7350
aI7389
aI7515
aI7532
aI7791
aI8605
aI8998
aI9022
aI9043
aI9185
aI9299
aI9367
aI9385
aI9523
aI9733
aI9772
aI9812
aI10271
aI10319
aI10423
aI10551
aI10672
aI10795
aI10816
aI10861
aI10900
aI11170
aI11489
aI11586
aI11709
aI11853
aI11873
aI11946
aI12344
aI12347
aI12578
aI12781
aI12887
aI13121
aI13125
aI13170
aI13377
aI13565
asS'GAGA'
p55
(lp56
I33
aI215
aI556
aI643
aI670
aI880
aI1135
aI1183
aI1498
aI1909
aI1984
aI1986
aI2018
aI2191
aI2367
aI2441
aI2523
aI2559
aI2648
aI2723
aI2816
aI2979
aI3005
aI3007
aI3044
aI3054
aI3173
aI3471
aI3881
aI4487
aI4580
aI5136
aI5138
aI5278
aI6321
aI6560
aI6702
aI6735
aI6913
aI7233
aI7353
aI7417
aI7449
aI7894
aI7903
aI8003
aI8122
aI8321
aI8465
aI8921
aI8923
aI8935
aI8981
aI9370
aI9437
aI9526
aI9770
aI9935
aI9993
aI10020
aI10051
aI10053
aI10184
aI10186
aI10534
aI10734
aI11194
aI11237
aI11871
aI11885
aI12015
aI12181
aI12226
aI12972
aI13088
aI13119
aI13402
aI13476
asS'TTAT'
p57
(lp58
I332
aI512
aI2051
aI2545
aI2828
aI2897
aI3550
aI4009
aI4433
aI4508
aI4602
aI4981
aI5024
aI5066
aI5918
aI6045
aI6130
aI6150
aI6203
aI6487
aI6592
aI6920
aI7484
aI7887
aI7950
aI7966
aI8177
aI9293
aI10356
aI10450
aI10540
aI10543
aI10708
aI12031
aI12034
aI12250
aI13010
aI13340
aI13482
asS'GCTG'
p59
(lp60
I212
aI239
aI469
aI606
aI613
aI1158
aI1234
aI1326
aI1417
aI1428
aI1455
aI1918
aI1947
aI2346
aI2630
aI2720
aI2864
aI2891
aI2924
aI2990
aI3872
aI3986
aI4022
aI4142
aI4381
aI4413
aI4544
aI5103
aI5563
aI5570
aI5993
aI6194
aI6270
aI6792
aI6872
aI6955
aI7253
aI7386
aI8087
aI8215
aI8326
aI8440
aI9334
aI9382
aI9409
aI9832
aI9873
aI10338
aI10436
aI10996
aI11008
aI11356
aI11467
aI11582
aI11835
aI12045
aI12152
aI12323
aI12515
aI12757
aI13056
aI13250
asS'GCTC'
p61
(lp62
I152
aI208
aI272
aI338
aI756
aI1396
aI2177
aI2286
aI3039
aI3253
aI3523
aI3650
aI4131
aI4664
aI5165
aI5345
aI5511
aI5650
aI5873
aI6777
aI6896
aI7269
aI7639
aI7716
aI7764
aI7859
aI7929
aI8301
aI8732
aI9005
aI9050
aI9481
aI9621
aI9677
aI9929
aI10057
aI10113
aI10907
aI10980
aI11300
aI11343
aI11730
aI11817
aI11957
aI12257
aI12693
aI13134
aI13192
aI13222
aI13285
asS'GCTA'
p63
(lp64
I374
aI580
aI733
aI931
aI960
aI1035
aI1057
aI1260
aI1652
aI1836
aI1950
aI3435
aI3506
aI4123
aI4449
aI5037
aI5182
aI5401
aI6024
aI6041
aI8347
aI8880
aI9890
aI10102
aI10639
aI10914
aI11045
aI12002
aI12112
aI12271
aI13216
asS'ATAA'
p65
(lp66
I449
aI519
aI693
aI963
aI984
aI2407
aI2454
aI2535
aI2877
aI2913
aI3021
aI3077
aI3129
aI3294
aI3761
aI3766
aI4362
aI4419
aI4838
aI4958
aI5285
aI6178
aI6205
aI6516
aI6541
aI6801
aI6813
aI7104
aI7378
aI7381
aI7552
aI7618
aI8153
aI8167
aI8331
aI8473
aI8693
aI8705
aI8792
aI8870
aI8972
aI9167
aI9208
aI9228
aI9278
aI9361
aI10127
aI10823
aI10967
aI10975
aI11059
aI11155
aI11225
aI11842
aI12036
aI12157
aI12734
aI13016
aI13050
aI13209
aI13329
asS'ATAC'
p67
(lp68
I746
aI837
aI1217
aI1266
aI1666
aI1705
aI2248
aI2471
aI2526
aI2790
aI3057
aI3217
aI3552
aI3740
aI4043
aI4306
aI4502
aI4569
aI4909
aI4947
aI4983
aI5920
aI6519
aI6624
aI6985
aI7216
aI7240
aI7297
aI7729
aI7998
aI8350
aI9248
aI9516
aI10344
aI10471
aI10688
aI11148
aI11448
aI11745
aI11821
aI11830
aI12566
aI12622
aI12651
aI12729
aI12791
aI12978
aI13165
aI13444
aI13558
asS'CCAT'
p69
(lp70
I107
aI399
aI497
aI691
aI780
aI1578
aI1602
aI1924
aI1956
aI2022
aI2258
aI2777
aI3035
aI3247
aI3274
aI3827
aI4321
aI4531
aI4593
aI4732
aI4802
aI4895
aI5008
aI5267
aI5539
aI5840
aI5955
aI6092
aI6467
aI7206
aI7650
aI7932
aI8142
aI8183
aI8815
aI8840
aI9262
aI10125
aI10399
aI10958
aI11054
aI11329
aI11748
aI11920
aI12431
aI12720
aI13363
aI13398
aI13427
aI13575
aI13619
aI13643
asS'ATAG'
p71
(lp72
I109
aI646
aI1517
aI1819
aI2322
aI2949
aI3410
aI3954
aI3967
aI4734
aI5350
aI5753
aI5776
aI5789
aI5842
aI6067
aI6327
aI6691
aI6753
aI6868
aI7081
aI7208
aI7621
aI8399
aI8497
aI9067
aI10363
aI10493
aI10556
aI10880
aI11207
aI11279
aI11318
aI11421
aI11464
aI11513
aI12109
aI12741
aI13032
aI13044
aI13063
asS'GCTT'
p73
(lp74
I250
aI639
aI923
aI941
aI1314
aI1442
aI1659
aI1686
aI1971
aI2633
aI2895
aI3049
aI3403
aI3533
aI3674
aI3783
aI4145
aI4314
aI4654
aI4859
aI4996
aI5047
aI5106
aI5987
aI6201
aI6357
aI7022
aI7885
aI8419
aI8448
aI8536
aI8669
aI9135
aI9291
aI9441
aI9460
aI10025
aI10192
aI10428
aI10559
aI10811
aI11811
aI11889
aI12333
aI12350
aI12862
aI13158
aI13503
asS'CCAA'
p75
(lp76
I63
aI164
aI531
aI807
aI1024
aI1050
aI1111
aI1585
aI1640
aI1738
aI1814
aI1853
aI2078
aI2084
aI2413
aI2575
aI2622
aI3529
aI3737
aI3920
aI4134
aI4190
aI4584
aI5030
aI5433
aI5631
aI5769
aI5797
aI5827
aI5854
aI6158
aI6262
aI6388
aI6653
aI6658
aI6750
aI7124
aI7335
aI7395
aI7548
aI7588
aI7612
aI8312
aI8371
aI8494
aI8575
aI8711
aI8788
aI8944
aI9118
aI9503
aI9801
aI10061
aI10440
aI10520
aI10578
aI10685
aI11031
aI11777
aI12206
aI12213
aI12384
aI12679
aI13073
aI13348
aI13468
asS'CCAC'
p77
(lp78
I115
aI432
aI445
aI650
aI749
aI910
aI1575
aI1623
aI1674
aI1826
aI1877
aI2219
aI2290
aI2703
aI3180
aI3497
aI3617
aI3644
aI3779
aI3891
aI4156
aI4159
aI4325
aI4469
aI4553
aI4889
aI5111
aI5479
aI5550
aI5697
aI6140
aI6225
aI6345
aI6510
aI6842
aI7010
aI7053
aI7670
aI7732
aI7850
aI8071
aI8108
aI8187
aI8382
aI8481
aI8547
aI8827
aI8830
aI9700
aI10032
aI10215
aI10298
aI10412
aI10940
aI11095
aI11425
aI11494
aI11598
aI11984
aI12203
aI12295
aI12545
aI12551
aI12645
aI12797
aI13199
aI13512
aI13526
aI13572
asS'ATAT'
p79
(lp80
I71
aI525
aI736
aI982
aI1592
aI1703
aI1779
aI2000
aI2416
aI3297
aI3764
aI3849
aI3906
aI4291
aI4676
aI4847
aI4945
aI5315
aI5586
aI6305
aI6838
aI6922
aI7503
aI7996
aI8028
aI8274
aI8276
aI8633
aI8657
aI8817
aI9014
aI9222
aI9264
aI10469
aI10585
aI12074
aI12289
aI12727
aI13322
asS'CCAG'
p81
(lp82
I103
aI229
aI235
aI603
aI888
aI1098
aI1188
aI1353
aI1439
aI1461
aI1750
aI2202
aI2682
aI2732
aI2799
aI2961
aI3120
aI3307
aI3395
aI3555
aI3611
aI3911
aI3941
aI4019
aI4254
aI4426
aI4728
aI5147
aI5155
aI5408
aI6233
aI6340
aI6892
aI7131
aI7189
aI7248
aI7300
aI7754
aI7779
aI7853
aI8424
aI8698
aI9002
aI9032
aI9053
aI9074
aI9331
aI9429
aI9468
aI9493
aI9602
aI9711
aI9829
aI10131
aI10175
aI10698
aI10752
aI10983
aI11160
aI11167
aI11216
aI11233
aI11364
aI11380
aI11534
aI11628
aI11721
aI11801
aI11808
aI11877
aI11943
aI11974
aI12128
aI12233
aI12503
aI12509
aI12536
aI12635
aI12813
aI12910
aI13189
aI13297
aI13437
asS'TAAG'
p83
(lp84
I205
aI594
aI694
aI1506
aI2042
aI2536
aI2686
aI2932
aI3022
aI3185
aI3767
aI3794
aI4055
aI4125
aI4473
aI5170
aI6026
aI6062
aI6206
aI6404
aI6440
aI6463
aI6802
aI6814
aI7048
aI7286
aI7411
aI8332
aI8451
aI8694
aI9195
aI9229
aI9396
aI9433
aI9584
aI9809
aI10386
aI11060
aI11156
aI11349
aI11999
aI12158
aI12603
aI12922
asS'TAAC'
p85
(lp86
I257
aI722
aI742
aI985
aI1120
aI1307
aI1841
aI2239
aI2408
aI2658
aI2914
aI3078
aI3279
aI3577
aI4072
aI4959
aI5061
aI5337
aI5642
aI5663
aI6052
aI6136
aI6650
aI6746
aI6932
aI7199
aI7261
aI7913
aI8020
aI8077
aI8168
aI8474
aI8973
aI9189
aI9279
aI9578
aI10128
aI10575
aI10726
aI10968
aI11040
aI11126
aI11437
aI11456
aI11938
aI11995
aI12037
aI13452
aI13579
asS'TAAA'
p87
(lp88
I302
aI712
aI1002
aI1493
aI1928
aI2090
aI2119
aI2455
aI2479
aI2839
aI2878
aI3084
aI3130
aI3898
aI4171
aI4347
aI4363
aI4420
aI4515
aI5286
aI5581
aI6108
aI6179
aI6289
aI6368
aI6542
aI6547
aI6554
aI6619
aI6708
aI6835
aI6860
aI7097
aI7105
aI7223
aI7310
aI7370
aI7382
aI7553
aI7666
aI8204
aI8561
aI8618
aI8793
aI8856
aI8862
aI8871
aI8887
aI8994
aI9168
aI9209
aI9362
aI9853
aI10204
aI10458
aI10562
aI10976
aI11145
aI11220
aI11226
aI11259
aI11768
aI12011
aI12137
aI12674
aI12735
aI13017
aI13150
aI13210
aI13392
asS'TGTC'
p89
(lp90
I364
aI395
aI404
aI427
aI506
aI718
aI1014
aI1450
aI1457
aI1874
aI1890
aI1920
aI1936
aI2339
aI2437
aI2491
aI2554
aI3462
aI3540
aI3775
aI3980
aI4078
aI4805
aI5222
aI5256
aI5318
aI5437
aI5878
aI6222
aI6470
aI6925
aI6937
aI7319
aI7839
aI8157
aI8379
aI8743
aI8909
aI9549
aI9574
aI9652
aI9945
aI10028
aI10073
aI10108
aI10513
aI10517
aI11198
aI11917
aI11929
aI12717
aI13027
aI13144
aI13227
aI13536
asS'TGTA'
p91
(lp92
I515
aI1251
aI1540
aI2656
aI2854
aI2873
aI2942
aI3111
aI3406
aI3447
aI3874
aI4070
aI4183
aI5072
aI5081
aI5565
aI5654
aI5995
aI6275
aI6366
aI7062
aI7375
aI7445
aI7911
aI8050
aI8089
aI8294
aI8643
aI8716
aI8866
aI9193
aI9667
aI9840
aI9952
aI10154
aI10483
aI11962
aI12491
aI13148
aI13412
aI13450
aI13639
asS'TCTT'
p93
(lp94
I22
aI340
aI387
aI626
aI811
aI1085
aI1398
aI1864
aI2362
aI3536
aI3638
aI3652
aI4716
aI4936
aI5069
aI5833
aI5981
aI6098
aI6315
aI6421
aI6885
aI7278
aI7947
aI8237
aI8364
aI8376
aI9177
aI9546
aI9705
aI9905
aI10045
aI10075
aI10651
aI11068
aI11310
aI11751
aI12247
aI12610
aI12999
aI13614
asS'ACTT'
p95
(lp96
I218
aI475
aI568
aI652
aI760
aI1336
aI1488
aI1521
aI1567
aI1682
aI2105
aI2115
aI2143
aI2422
aI2543
aI3281
aI3390
aI3459
aI3477
aI3731
aI3887
aI4308
aI4444
aI4458
aI4949
aI5063
aI5185
aI5374
aI5908
aI6004
aI6331
aI6460
aI7242
aI7709
aI8110
aI8306
aI8584
aI8802
aI8832
aI9281
aI9641
aI9656
aI9740
aI9845
aI10001
aI10034
aI10445
aI10568
aI10676
aI10853
aI11128
aI11439
aI11472
aI11619
aI11950
aI11991
aI12653
aI12854
aI13446
asS'TAAT'
p97
(lp98
I370
aI450
aI517
aI520
aI964
aI2875
aI2944
aI3106
aI3295
aI3408
aI3420
aI3437
aI3508
aI3762
aI3904
aI3952
aI4796
aI4839
aI5313
aI5534
aI5604
aI5738
aI5997
aI6033
aI6115
aI6303
aI6484
aI6517
aI6689
aI7058
aI7379
aI7597
aI7619
aI8047
aI8052
aI8154
aI8631
aI8655
aI8706
aI8868
aI8970
aI9018
aI9039
aI9060
aI9246
aI10086
aI10583
aI10824
aI10973
aI11622
aI11843
aI11953
aI12004
aI13051
aI13110
aI13115
aI13330
aI13344
aI13543
asS'TCTG'
p99
(lp100
I13
aI154
aI291
aI296
aI335
aI402
aI406
aI730
aI1141
aI1213
aI1318
aI1888
aI2047
aI2355
aI2489
aI2510
aI2519
aI2618
aI2645
aI2753
aI2871
aI2983
aI3143
aI3167
aI3590
aI4522
aI4679
aI4919
aI5258
aI5652
aI5882
aI5936
aI6144
aI6220
aI6774
aI7443
aI7920
aI8542
aI8551
aI8773
aI8877
aI9267
aI9325
aI9406
aI9861
aI9896
aI10369
aI10379
aI10515
aI10636
aI10744
aI10764
aI10870
aI10897
aI11071
aI11179
aI11200
aI11302
aI11565
aI11592
aI11664
aI11682
aI11697
aI11760
aI11796
aI11814
aI12118
aI12265
aI12336
aI12857
aI13146
aI13371
aI13410
asS'ACTA'
p101
(lp102
I483
aI1060
aI1118
aI1755
aI1797
aI1828
aI1849
aI2088
aI2280
aI2397
aI2763
aI2837
aI3082
aI3575
aI3579
aI4277
aI4345
aI4471
aI5127
aI5311
aI5579
aI5602
aI5644
aI5699
aI6190
aI6362
aI6648
aI6687
aI7028
aI7284
aI7358
aI7595
aI8170
aI9037
aI9099
aI9373
aI10486
aI11324
aI11408
aI11496
aI11823
aI11997
aI12009
aI12018
aI12553
aI12731
aI12793
aI12839
aI13387
aI13390
asS'ACTC'
p103
(lp104
I27
aI624
aI987
aI1114
aI1139
aI1273
aI1309
aI1332
aI2241
aI2705
aI2792
aI2833
aI2957
aI3150
aI3219
aI3349
aI4111
aI4375
aI4886
aI4891
aI4985
aI5481
aI5575
aI5851
aI6142
aI6385
aI6721
aI6761
aI6827
aI7157
aI7434
aI7479
aI7524
aI8270
aI8288
aI8362
aI8549
aI8778
aI8785
aI9518
aI10942
aI11066
aI11450
aI12021
aI12497
aI12647
aI13095
aI13279
aI13461
aI13612
asS'TCTC'
p105
(lp106
I186
aI429
aI478
aI728
aI989
aI1102
aI1172
aI1303
aI1635
aI1892
aI2029
aI3734
aI4898
aI4930
aI5241
aI5880
aI5911
aI5913
aI6118
aI6218
aI6779
aI7403
aI8211
aI8540
aI8752
aI9257
aI9259
aI9313
aI9791
aI9793
aI9820
aI9909
aI9931
aI10004
aI10011
aI10043
aI10068
aI10137
aI10477
aI10600
aI10895
aI10921
aI11332
aI11680
aI12080
aI12361
asS'CGTT'
p107
(lp108
I56
aI346
aI1481
aI1503
aI1861
aI2026
aI2153
aI2159
aI2434
aI2530
aI3203
aI3547
aI4505
aI4644
aI4667
aI4855
aI5231
aI5359
aI5379
aI5626
aI6102
aI6215
aI6284
aI6918
aI6993
aI7507
aI7768
aI7811
aI8191
aI10266
aI10353
aI11519
aI12166
aI12600
aI12905
aI13480
aI13487
aI13518
asS'TCTA'
p109
(lp110
I182
aI720
aI740
aI1000
aI1016
aI1305
aI1964
aI2179
aI2301
aI2493
aI3488
aI4117
aI4284
aI4461
aI4915
aI4987
aI5282
aI5439
aI6120
aI6287
aI6482
aI6617
aI6723
aI6888
aI7046
aI7089
aI7526
aI7641
aI7841
aI7870
aI8042
aI8055
aI8221
aI8303
aI8532
aI8629
aI8734
aI8745
aI8823
aI9164
aI9535
aI9557
aI9576
aI9807
aI9998
aI10037
aI10220
aI10325
aI11038
aI11212
aI11257
aI11477
aI11639
aI12132
aI12499
aI12563
aI12851
aI13113
aI13162
aI13194
asS'ACTG'
p111
(lp112
I259
aI1130
aI1676
aI1915
aI2666
aI3031
aI3059
aI3133
aI3259
aI4065
aI4120
aI4767
aI5116
aI5189
aI5227
aI5390
aI5429
aI5466
aI5900
aI6054
aI6335
aI6474
aI6504
aI7065
aI7511
aI8036
aI8137
aI8292
aI8344
aI8476
aI8568
aI8662
aI9191
aI9241
aI9530
aI9572
aI9609
aI9958
aI9971
aI10681
aI10904
aI11001
aI11085
aI11826
aI11832
aI11882
aI12068
aI12305
aI12556
aI13201
aI13562
asS'AAGG'
p113
(lp114
I419
aI535
aI595
aI977
aI1054
aI1507
aI1855
aI2537
aI2589
aI2627
aI2861
aI2902
aI2933
aI2975
aI3326
aI3361
aI3369
aI3380
aI3725
aI4136
aI4586
aI5171
aI5291
aI5667
aI5803
aI6027
aI6207
aI6249
aI6557
aI6715
aI7165
aI7337
aI7421
aI7533
aI7590
aI7740
aI7821
aI8452
aI8602
aI8726
aI9218
aI9364
aI9397
aI9434
aI9734
aI10181
aI10387
aI10594
aI10774
aI11171
aI11244
aI11350
aI12142
aI12208
aI12803
aI12888
aI13019
aI13122
aI13171
aI13350
aI13662
asS'CTAG'
p115
(lp116
I484
aI932
aI1283
aI1423
aI1725
aI1756
aI1798
aI1951
aI1965
aI2281
aI2398
aI2764
aI3580
aI4278
aI4700
aI4988
aI5645
aI6191
aI7029
aI7090
aI7327
aI7359
aI7527
aI7871
aI8043
aI8231
aI8505
aI8533
aI8735
aI8881
aI9100
aI9374
aI9455
aI9536
aI9926
aI10221
aI10487
aI10640
aI10915
aI11415
aI11497
aI11640
aI12366
aI12471
aI12840
asS'CGGA'
p117
(lp118
I31
aI668
aI773
aI913
aI1126
aI1181
aI1374
aI1433
aI1647
aI1789
aI2148
aI2468
aI2557
aI2652
aI2954
aI3323
aI3338
aI3357
aI3543
aI3702
aI3755
aI3845
aI4942
aI5161
aI5200
aI5247
aI5424
aI5493
aI5592
aI5848
aI5942
aI6426
aI6911
aI7005
aI8001
aI8263
aI9718
aI9731
aI9991
aI10014
aI10163
aI10169
aI11611
aI12063
aI12083
aI12403
aI12444
aI12528
aI12704
aI12788
aI12934
aI12955
aI13086
asS'AAGC'
p119
(lp120
I206
aI546
aI1394
aI1527
aI1719
aI1786
aI1994
aI2092
aI2267
aI2332
aI2711
aI2881
aI3023
aI3047
aI3429
aI3521
aI3531
aI3686
aI3768
aI3795
aI3999
aI4056
aI4173
aI4423
aI4517
aI5101
aI5195
aI5489
aI5633
aI6449
aI6464
aI6549
aI6601
aI6660
aI6790
aI6803
aI6815
aI6853
aI7049
aI7203
aI7384
aI7685
aI7749
aI7786
aI7808
aI7987
aI8333
aI8638
aI8695
aI8999
aI9009
aI9092
aI9196
aI9423
aI9773
aI10229
aI10272
aI10749
aI10839
aI10862
aI10890
aI10978
aI11103
aI11157
aI11874
aI12000
aI12159
aI12216
aI12348
aI12579
aI12923
aI13378
aI13566
asS'ACGT'
p121
(lp122
I119
aI1122
aI1207
aI1502
aI2182
aI2298
aI2444
aI2486
aI3190
aI3442
aI3546
aI4045
aI4107
aI4161
aI4168
aI4452
aI4504
aI4643
aI4793
aI5448
aI5811
aI6214
aI6283
aI6917
aI7307
aI7644
aI7975
aI8483
aI9788
aI9797
aI10105
aI12172
aI12682
aI12835
aI13245
aI13479
aI13530
asS'AAGA'
p123
(lp124
I166
aI321
aI351
aI488
aI576
aI695
aI702
aI878
aI1005
aI1496
aI1531
aI2016
aI2294
aI2483
aI2565
aI2687
aI2841
aI3012
aI3063
aI3171
aI3223
aI3864
aI3884
aI4192
aI4225
aI4474
aI4617
aI4621
aI5213
aI5288
aI5497
aI5772
aI6063
aI6377
aI6405
aI6412
aI6441
aI6523
aI6597
aI6621
aI6769
aI6819
aI6864
aI7101
aI7107
aI7114
aI7171
aI7194
aI7226
aI7312
aI7342
aI7348
aI7351
aI7390
aI7399
aI7615
aI7678
aI7792
aI7846
aI8563
aI8606
aI8620
aI8919
aI8996
aI9368
aI9386
aI9505
aI9524
aI9585
aI9810
aI9813
aI10063
aI10142
aI10424
aI10522
aI10552
aI10673
aI10796
aI10817
aI10832
aI10901
aI11222
aI11228
aI11336
aI11587
aI11635
aI11710
aI11854
aI11912
aI11947
aI12013
aI12224
aI12243
aI12345
aI12782
aI13384
aI13394
asS'CACT'
p125
(lp126
I474
aI651
aI759
aI1117
aI1272
aI1331
aI1335
aI1675
aI1827
aI2104
aI2704
aI2836
aI3081
aI3348
aI3458
aI3476
aI3730
aI4064
aI4276
aI4344
aI4470
aI4890
aI5126
aI5389
aI5480
aI5578
aI5601
aI5698
aI6141
aI6384
aI6473
aI6760
aI7523
aI8035
aI8109
aI8287
aI8291
aI8548
aI8583
aI8661
aI8831
aI9608
aI9640
aI9655
aI9844
aI9970
aI10033
aI10444
aI10941
aI11471
aI11495
aI11990
aI12067
aI12496
aI12552
aI12646
aI13200
aI13561
aI13611
asS'TGTG'
p127
(lp128
I139
aI241
aI440
aI608
aI610
aI820
aI920
aI1132
aI1160
aI1743
aI1745
aI1974
aI2227
aI2348
aI2387
aI2636
aI2770
aI2780
aI3000
aI3002
aI3109
aI3592
aI4148
aI4388
aI4661
aI4707
aI4877
aI5088
aI5745
aI5819
aI5836
aI5984
aI5990
aI6146
aI7557
aI7559
aI7569
aI7800
aI8676
aI9725
aI9766
aI10152
aI10313
aI10315
aI10876
aI11010
aI11442
aI11567
aI11706
aI11861
aI12053
aI12055
aI12057
aI12185
aI12325
aI12327
aI12338
aI12395
aI12448
aI12450
aI12461
aI12481
aI12767
aI12778
aI12859
aI12884
asS'GTGC'
p129
(lp130
I89
aI150
aI611
aI803
aI921
aI1047
aI1371
aI1426
aI1510
aI1644
aI1834
aI2206
aI2228
aI2318
aI2349
aI2428
aI3585
aI3593
aI4099
aI4201
aI4389
aI4565
aI4662
aI4711
aI4878
aI4924
aI4976
aI5144
aI5296
aI5746
aI5813
aI5820
aI5837
aI5967
aI5985
aI5991
aI6014
aI6080
aI7570
aI7801
aI7927
aI7977
aI8118
aI8392
aI9726
aI9988
aI10336
aI10659
aI11298
aI11368
aI11443
aI11500
aI12331
aI12396
aI12506
aI12768
aI12860
aI13214
aI13472
aI13501
asS'GTGG'
p131
(lp132
I80
aI242
aI633
aI676
aI821
aI1153
aI1384
aI1746
aI2232
aI2388
aI2715
aI2771
aI2781
aI3599
aI4246
aI4353
aI4684
aI4708
aI4761
aI4776
aI5121
aI5450
aI5508
aI5756
aI5973
aI6038
aI6694
aI7414
aI7829
aI8093
aI8096
aI8389
aI8677
aI8729
aI9046
aI9767
aI9880
aI10260
aI10316
aI10802
aI11568
aI12186
aI12328
aI12339
aI12462
aI12476
aI12482
aI12808
aI12827
aI13174
asS'ACGA'
p133
(lp134
I554
aI724
aI751
aI1268
aI1912
aI2059
aI2072
aI3377
aI4074
aI4271
aI4372
aI4485
aI4752
aI4789
aI4955
aI5113
aI5207
aI5404
aI5503
aI5546
aI6537
aI6786
aI6876
aI7439
aI8079
aI8319
aI8403
aI8768
aI9588
aI9785
aI9955
aI10209
aI11602
aI12418
aI12761
aI12799
aI12975
aI12980
aI13099
aI13522
aI13654
asS'ACGC'
p135
(lp136
I754
aI1177
aI1232
aI1388
aI2101
aI2122
aI2194
aI2410
aI3499
aI3672
aI3781
aI4400
aI4439
aI5035
aI5040
aI5420
aI6239
aI7137
aI8410
aI9597
aI11530
aI12897
aI12963
aI13259
aI13301
asS'AAGT'
p137
(lp138
I136
aI304
aI437
aI550
aI1011
aI1027
aI1642
aI1740
aI2043
aI2738
aI2929
aI3124
aI3186
aI3900
aI4097
aI4126
aI4557
aI5595
aI5704
aI5710
aI6085
aI6265
aI6371
aI6882
aI7220
aI7257
aI7287
aI7412
aI7499
aI7516
aI7703
aI8579
aI8592
aI8615
aI8845
aI8946
aI9023
aI9044
aI9174
aI9186
aI9230
aI9300
aI9402
aI9722
aI9759
aI9855
aI10282
aI10320
aI10460
aI10580
aI10800
aI11061
aI11188
aI11490
aI11770
aI11779
aI11785
aI11858
aI12604
aI13126
aI13212
aI13470
aI13553
asS'ACGG'
p139
(lp140
I169
aI673
aI912
aI1377
aI1625
aI2651
aI3337
aI3624
aI3646
aI3742
aI3754
aI3923
aI5199
aI5216
aI5246
aI5339
aI5385
aI5398
aI5474
aI5591
aI5638
aI6227
aI8000
aI8207
aI8415
aI9560
aI9751
aI10162
aI10807
aI11610
aI12062
aI12954
aI12983
aI13153
aI13274
asS'CGGT'
p141
(lp142
I78
aI130
aI674
aI795
aI1402
aI2352
aI2359
aI3239
aI3597
aI3625
aI3743
aI3822
aI3859
aI3895
aI3937
aI4385
aI4833
aI4927
aI5051
aI5217
aI5238
aI5365
aI5639
aI5816
aI6186
aI6940
aI7937
aI8010
aI8062
aI8208
aI9161
aI9561
aI9752
aI10083
aI10334
aI10572
aI10857
aI11375
aI12665
aI13633
asS'GGCC'
p143
(lp144
I16
aI263
aI280
aI495
aI787
aI1467
aI1728
aI1736
aI1748
aI2076
aI2401
aI3262
aI3615
aI3787
aI4248
aI4429
aI4551
aI4575
aI4692
aI5274
aI5477
aI5695
aI5759
aI6029
aI6070
aI6076
aI6229
aI6338
aI6573
aI6973
aI7823
aI7831
aI8068
aI8140
aI8253
aI9116
aI9501
aI9698
aI9714
aI10331
aI10382
aI11173
aI11516
aI11596
aI11934
aI12277
aI12810
aI13176
aI13361
aI13435
aI13600
asS'GGCA'
p145
(lp146
I172
aI598
aI699
aI937
aI1195
aI1663
aI1700
aI2539
aI2727
aI2783
aI3372
aI3456
aI3558
aI3963
aI4212
aI4673
aI4757
aI4968
aI5124
aI5387
aI5411
aI5471
aI5890
aI6010
aI6175
aI6446
aI6611
aI7488
aI7535
aI7874
aI8407
aI8513
aI8528
aI8684
aI8764
aI9876
aI10490
aI10590
aI10596
aI11396
aI11538
aI11632
aI11739
aI12369
aI12455
aI12585
aI12708
aI12875
aI12891
aI13352
aI13607
asS'GTGT'
p147
(lp148
I138
aI394
aI439
aI505
aI609
aI1013
aI1742
aI1744
aI1935
aI1975
aI2338
aI2386
aI2553
aI3001
aI3110
aI3774
aI3808
aI4149
aI4387
aI5093
aI5727
aI5744
aI5818
aI5877
aI6147
aI7289
aI7558
aI7568
aI7910
aI9724
aI9951
aI10107
aI10153
aI10314
aI10482
aI10512
aI10645
aI10875
aI11011
aI11734
aI11860
aI11925
aI11961
aI12054
aI12056
aI12326
aI12376
aI12449
aI12480
aI12490
aI12606
aI12716
aI13026
aI13226
aI13638
asS'TTCT'
p149
(lp150
I477
aI739
aI1084
aI1171
aI1302
aI1317
aI1863
aI1887
aI2028
aI2046
aI2518
aI2617
aI2644
aI2752
aI2870
aI3142
aI3535
aI3637
aI3733
aI4116
aI4460
aI5832
aI5910
aI6217
aI6286
aI6314
aI6616
aI6887
aI7088
aI7277
aI7919
aI7946
aI8220
aI8375
aI8539
aI9256
aI9324
aI9405
aI9556
aI9806
aI9895
aI9908
aI10003
aI10036
aI10067
aI10378
aI10476
aI10635
aI10650
aI11037
aI11070
aI11178
aI11256
aI11476
aI11679
aI11813
aI12079
aI12117
aI12335
aI12360
aI12562
aI12609
aI12850
aI12856
aI13161
aI13370
aI13409
asS'AGGG'
p151
(lp152
I143
aI596
aI1412
aI1543
aI1608
aI1690
aI1903
aI2283
aI2976
aI3362
aI3370
aI3582
aI3613
aI3633
aI3838
aI3913
aI4235
aI4587
aI4637
aI5141
aI5172
aI5292
aI5804
aI6208
aI6250
aI6398
aI6444
aI6643
aI7338
aI7422
aI7591
aI7636
aI7962
aI8082
aI8386
aI8499
aI9114
aI9144
aI9498
aI9735
aI10257
aI10754
aI10911
aI11536
aI11630
aI11868
aI12889
aI13624
asS'AGGA'
p153
(lp154
I276
aI420
aI536
aI978
aI1092
aI1145
aI1485
aI1694
aI1752
aI1765
aI1907
aI2069
aI2590
aI2903
aI2934
aI3705
aI3726
aI3943
aI3969
aI4088
aI4137
aI4280
aI5203
aI5262
aI5500
aI5668
aI6558
aI6586
aI6807
aI6879
aI7191
aI7210
aI7495
aI7582
aI7699
aI7781
aI7795
aI8134
aI8341
aI8453
aI8603
aI8897
aI9219
aI9365
aI9398
aI9435
aI9448
aI9495
aI10133
aI10182
aI10418
aI10532
aI10622
aI10775
aI10985
aI10988
aI11081
aI11235
aI11240
aI11339
aI11351
aI11572
aI12143
aI12179
aI12235
aI12511
aI12831
aI12842
aI12995
aI13020
aI13123
aI13355
asS'AGGC'
p155
(lp156
I237
aI279
aI698
aI936
aI1055
aI1289
aI1466
aI1699
aI1727
aI1758
aI2075
aI2400
aI2538
aI2628
aI2726
aI2862
aI2889
aI2951
aI3557
aI3605
aI4028
aI4140
aI4428
aI4550
aI4672
aI4691
aI5410
aI5568
aI5889
aI6028
aI6069
aI6355
aI6572
aI6870
aI6894
aI7534
aI7822
aI7873
aI8324
aI8406
aI8429
aI8512
aI8667
aI8763
aI9713
aI10489
aI10595
aI11172
aI11515
aI11933
aI12368
aI12454
aI12707
aI12804
aI12815
aI12823
aI12912
aI12931
aI13283
aI13351
asS'TCAA'
p157
(lp158
I417
aI480
aI565
aI853
aI1228
aI1255
aI1775
aI1938
aI2563
aI2587
aI2677
aI2759
aI2900
aI3221
aI3291
aI3426
aI3852
aI3862
aI3997
aI4481
aI4932
aI5224
aI5243
aI5347
aI5513
aI5676
aI6255
aI6595
aI6637
aI6671
aI6679
aI6781
aI6849
aI7293
aI7321
aI7436
aI7676
aI7738
aI7746
aI7773
aI8146
aI8197
aI8613
aI8636
aI8723
aI8843
aI8905
aI9007
aI9090
aI9204
aI9885
aI10139
aI10827
aI10849
aI11334
aI11754
aI11892
aI11905
aI12190
aI12286
aI12302
aI12695
aI13013
aI13029
aI13551
asS'GATT'
p159
(lp160
I200
aI329
aI558
aI895
aI903
aI1406
aI1435
aI1885
aI2169
aI2513
aI2615
aI2693
aI3719
aI3866
aI4090
aI4194
aI4240
aI4261
aI4687
aI4868
aI4991
aI5332
aI5716
aI6300
aI6407
aI6588
aI6606
aI7958
aI9140
aI9253
aI9270
aI9553
aI9590
aI9865
aI10065
aI10713
aI10757
aI10846
aI11383
aI11523
aI11604
aI12530
aI12572
aI12763
aI12819
aI12957
aI13492
aI13548
asS'GACT'
p161
(lp162
I26
aI217
aI1487
aI1520
aI1566
aI1754
aI1796
aI1848
aI1914
aI2956
aI3149
aI3574
aI3886
aI4374
aI4457
aI4766
aI5115
aI5310
aI5850
aI5899
aI5907
aI6330
aI6720
aI7594
aI8136
aI8343
aI8777
aI8801
aI9240
aI9372
aI9571
aI9739
aI9957
aI10567
aI10675
aI10680
aI10903
aI11065
aI11949
aI12017
aI13278
aI13386
asS'AGGT'
p163
(lp164
I93
aI801
aI1285
aI1508
aI1856
aI1980
aI2129
aI2204
aI2745
aI2801
aI3139
aI3210
aI3327
aI3353
aI3381
aI3667
aI4228
aI5506
aI5660
aI6295
aI6716
aI7166
aI7741
aI7867
aI8266
aI8727
aI8737
aI9027
aI9069
aI9102
aI9317
aI9543
aI9949
aI10293
aI10373
aI10388
aI11209
aI11245
aI11281
aI11296
aI11366
aI11967
aI12209
aI12374
aI13067
aI13172
aI13415
aI13663
asS'TTCG'
p165
(lp166
I67
aI176
aI342
aI628
aI826
aI1349
aI1400
aI1932
aI2383
aI3331
aI3811
aI3935
aI3958
aI4395
aI4498
aI4850
aI5049
aI5159
aI5377
aI5381
aI5688
aI5718
aI5730
aI5846
aI5940
aI5977
aI6007
aI6100
aI6184
aI6424
aI6909
aI8261
aI8893
aI9592
aI9977
aI10048
aI10242
aI10268
aI10570
aI10855
aI11508
aI11555
aI12617
aI12948
aI13001
aI13106
aI13430
asS'TCAC'
p167
(lp168
I285
aI500
aI758
aI791
aI1116
aI1245
aI1334
aI1637
aI1990
aI2031
aI2057
aI2580
aI2835
aI3152
aI3670
aI4275
aI4810
aI4900
aI5027
aI5542
aI5577
aI5589
aI5600
aI6383
aI6472
aI6535
aI6759
aI7135
aI8290
aI8486
aI8582
aI8660
aI8911
aI9464
aI9607
aI9623
aI9654
aI9795
aI9822
aI9969
aI10611
aI10654
aI11131
aI12380
aI12533
aI12723
aI12961
aI13097
aI13287
aI13538
asS'TTCA'
p169
(lp170
I284
aI307
aI378
aI655
aI927
aI1361
aI1446
aI1570
aI2162
aI2424
aI2532
aI2758
aI3096
aI3214
aI3868
aI4242
aI4288
aI4357
aI4598
aI5011
aI5233
aI6308
aI6317
aI6382
aI6577
aI6727
aI6848
aI7015
aI7292
aI7463
aI7492
aI7600
aI7737
aI7745
aI7772
aI8145
aI8193
aI8509
aI8758
aI8904
aI8949
aI9089
aI9236
aI9273
aI9463
aI9606
aI9867
aI9884
aI9968
aI10653
aI10785
aI10848
aI11130
aI11753
aI11891
aI12282
aI12353
aI12379
aI12532
aI12960
aI13129
aI13550
asS'TTCC'
p171
(lp172
I220
aI763
aI1338
aI1437
aI1595
aI2145
aI2573
aI3069
aI3118
aI3205
aI3385
aI3399
aI3889
aI3930
aI4154
aI4319
aI4534
aI4656
aI4718
aI5270
aI5628
aI5963
aI6260
aI6904
aI7002
aI7245
aI7333
aI7610
aI8059
aI8556
aI8837
aI8942
aI9030
aI9072
aI9179
aI9659
aI9709
aI9923
aI10097
aI10404
aI10430
aI10722
aI11052
aI11385
aI11412
aI11971
aI12574
aI12908
aI13185
aI13616
asS'CTCA'
p173
(lp174
I273
aI479
aI757
aI790
aI1103
aI1115
aI1244
aI1310
aI1333
aI1342
aI1636
aI1893
aI2030
aI2066
aI2586
aI2793
aI2834
aI3040
aI3151
aI3220
aI3350
aI4112
aI4809
aI4899
aI4931
aI5242
aI5346
aI5512
aI5576
aI5675
aI5914
aI6349
aI6534
aI6780
aI6900
aI7158
aI7404
aI7435
aI7480
aI7717
aI7860
aI8271
aI8289
aI8753
aI8779
aI9006
aI9203
aI9314
aI9519
aI9622
aI9794
aI9821
aI10069
aI10138
aI10478
aI10908
aI10922
aI10943
aI11333
aI11344
aI11818
aI12022
aI12648
aI12694
aI13096
aI13280
aI13286
asS'GACA'
p175
(lp176
I472
aI704
aI882
aI1270
aI1329
aI1356
aI1696
aI2173
aI2369
aI2392
aI2843
aI2910
aI3231
aI3602
aI3707
aI3728
aI4025
aI4062
aI4104
aI4404
aI4489
aI4607
aI4640
aI4745
aI4822
aI5000
aI5453
aI5862
aI5932
aI6057
aI6414
aI7147
aI7657
aI7981
aI8033
aI8127
aI8455
aI8649
aI9391
aI9471
aI9835
aI9937
aI9961
aI10341
aI10465
aI10736
aI10771
aI10930
aI11185
aI11483
aI11712
aI12065
aI12237
aI12413
aI12420
aI12486
aI12519
aI13656
asS'GACC'
p177
(lp178
I226
aI443
aI1147
aI1191
aI1240
aI1613
aI1811
aI1822
aI2020
aI2037
aI2254
aI2375
aI3175
aI3697
aI4208
aI4582
aI4590
aI4737
aI5150
aI5406
aI5548
aI5953
aI6562
aI6951
aI7007
aI7228
aI7392
aI7584
aI7848
aI7970
aI8244
aI8502
aI9340
aI9614
aI10144
aI10308
aI10409
aI11688
aI12125
aI12467
aI12662
aI13083
aI13396
aI13465
aI13524
aI13570
asS'GATG'
p179
(lp180
I190
aI679
aI1007
aI1203
aI1533
aI1649
aI1872
aI2097
aI2600
aI2654
aI2919
aI3065
aI3100
aI3146
aI3158
aI3481
aI4076
aI4302
aI4476
aI4724
aI4754
aI5044
aI5079
aI5175
aI6273
aI6821
aI7713
aI8124
aI8925
aI9079
aI9337
aI9352
aI9388
aI9764
aI9943
aI10022
aI10092
aI10224
aI10305
aI10420
aI10789
aI10792
aI10950
aI11196
aI11353
aI11359
aI11547
aI11685
aI12042
aI12183
aI12314
aI12405
aI12446
aI12657
aI12749
aI12752
aI12882
aI13204
aI13231
aI13238
aI13334
aI13357
asS'GATA'
p181
(lp182
I70
aI645
aI1216
aI1265
aI1591
aI2247
aI2406
aI2453
aI2470
aI2525
aI2948
aI3056
aI3076
aI3128
aI4305
aI4361
aI4418
aI4501
aI4846
aI4944
aI4957
aI6515
aI6623
aI7080
aI7103
aI7239
aI7617
aI8027
aI8166
aI8398
aI8472
aI8692
aI8704
aI9221
aI9277
aI10879
aI11206
aI11224
aI11829
aI12108
aI12790
aI12977
aI13049
aI13062
aI13443
asS'GACG'
p183
(lp184
I168
aI672
aI753
aI1176
aI1206
aI1376
aI1387
aI1911
aI2071
aI2100
aI2193
aI2443
aI2485
aI2650
aI3336
aI3376
aI3441
aI3545
aI4371
aI4438
aI4751
aI5215
aI5384
aI5397
aI5502
aI6282
aI6875
aI8402
aI8414
aI9587
aI9787
aI10161
aI11609
aI12171
aI12417
aI12760
aI12953
aI12974
aI12982
aI13258
aI13300
aI13478
asS'CTGA'
p185
(lp186
I155
aI213
aI292
aI470
aI614
aI875
aI993
aI1142
aI1214
aI1327
aI2404
aI2511
aI2646
aI2667
aI2721
aI2865
aI2984
aI2991
aI3060
aI3144
aI3168
aI4023
aI4222
aI5259
aI5571
aI6055
aI6271
aI6475
aI6505
aI6583
aI6628
aI6793
aI6873
aI7066
aI7231
aI7254
aI7387
aI7892
aI8396
aI8569
aI8915
aI9268
aI9326
aI9335
aI9383
aI9531
aI9833
aI9959
aI9972
aI10339
aI10370
aI10745
aI10765
aI10898
aI10997
aI11357
aI11665
aI11683
aI11692
aI11698
aI11827
aI11883
aI12046
aI12069
aI12119
aI12153
aI12557
aI12758
aI13202
aI13563
asS'TAGT'
p187
(lp188
I253
aI562
aI898
aI1210
aI1424
aI1867
aI1952
aI2447
aI2749
aI3113
aI3411
aI3831
aI3955
aI4035
aI4048
aI4539
aI4863
aI5754
aI5843
aI6168
aI6692
aI7030
aI7033
aI7082
aI7528
aI8044
aI8091
aI8506
aI8718
aI9233
aI9303
aI9347
aI9375
aI9537
aI10455
aI10617
aI10881
aI11142
aI11284
aI11498
aI12714
aI13033
aI13045
aI13636
asS'GGAA'
p189
(lp190
I313
aI421
aI683
aI774
aI914
aI979
aI1093
aI1127
aI1679
aI1766
aI2265
aI2591
aI2927
aI2935
aI3018
aI3324
aI3339
aI3358
aI3756
aI3846
aI3915
aI3944
aI4906
aI5204
aI5263
aI5425
aI5494
aI5593
aI5669
aI6001
aI6210
aI6427
aI6492
aI6645
aI6824
aI6880
aI7163
aI7192
aI7211
aI7340
aI7496
aI7514
aI7700
aI7782
aI7796
aI8604
aI8898
aI8929
aI9184
aI9298
aI9366
aI9399
aI9719
aI9732
aI10318
aI10605
aI10623
aI10671
aI10776
aI10804
aI10815
aI10989
aI11082
aI11241
aI11585
aI11612
aI11660
aI11852
aI12084
aI12144
aI12195
aI12308
aI12832
aI12935
aI13124
asS'ATCT'
p191
(lp192
I21
aI185
aI295
aI334
aI386
aI401
aI727
aI810
aI999
aI1963
aI2509
aI2982
aI4283
aI4678
aI4715
aI4897
aI4918
aI4935
aI5068
aI5281
aI5935
aI6097
aI6117
aI6420
aI6481
aI6773
aI7045
aI7402
aI7442
aI8054
aI8531
aI8772
aI8876
aI9266
aI9312
aI9534
aI9819
aI9997
aI10010
aI10136
aI10324
aI10368
aI10599
aI10869
aI11331
aI11564
aI11638
aI11663
aI11696
aI11750
aI11795
aI12246
aI12264
aI12998
aI13112
asS'GCCC'
p193
(lp194
I61
aI101
aI264
aI805
aI886
aI1321
aI1420
aI1621
aI1672
aI1721
aI1729
aI2063
aI2109
aI2269
aI2334
aI3263
aI3688
aI4017
aI4249
aI4391
aI4528
aI4576
aI5555
aI5691
aI5760
aI5794
aI5959
aI6090
aI6197
aI6230
aI6958
aI6974
aI7051
aI8069
aI8181
aI8228
aI8479
aI8491
aI8545
aI9672
aI9715
aI10250
aI10274
aI11074
aI11252
aI11362
aI11433
aI11532
aI11550
aI11558
aI11674
aI11718
aI11799
aI12278
aI12293
aI12543
aI12643
aI12811
aI12968
aI13177
aI13295
aI13591
asS'GCCA'
p195
(lp196
I106
aI114
aI496
aI649
aI690
aI1049
aI1187
aI1352
aI1574
aI1737
aI1749
aI2077
aI2412
aI2621
aI2776
aI2798
aI3034
aI3246
aI3394
aI3496
aI3528
aI3616
aI3643
aI3910
aI4253
aI4425
aI4552
aI4727
aI4731
aI4801
aI5007
aI5110
aI5146
aI5154
aI5432
aI5478
aI5696
aI5839
aI6339
aI6466
aI6509
aI7130
aI7188
aI7205
aI7753
aI8141
aI8311
aI8423
aI8697
aI8710
aI9001
aI9117
aI9330
aI9502
aI9699
aI9828
aI10398
aI10439
aI10684
aI10751
aI11030
aI11159
aI11424
aI11597
aI11627
aI11876
aI12508
aI12550
aI12634
aI13072
aI13362
aI13426
aI13436
asS'CCGG'
p197
(lp198
I3
aI30
aI129
aI667
aI772
aI794
aI1180
aI1193
aI2147
aI2342
aI2596
aI3238
aI3432
aI3454
aI3596
aI3701
aI3789
aI3894
aI4210
aI4813
aI4903
aI5272
aI5423
aI5492
aI5693
aI6072
aI7004
aI8061
aI9484
aI9674
aI9717
aI9984
aI10099
aI10333
aI12402
aI12527
aI12582
aI12664
aI12787
aI13079
aI13085
aI13593
asS'GCGG'
p199
(lp200
I1373
aI1432
aI1629
aI1646
aI1788
aI1801
aI1968
aI2351
aI2358
aI2467
aI2953
aI3322
aI3714
aI3858
aI4030
aI4384
aI4832
aI4926
aI4941
aI5364
aI5457
aI5469
aI5815
aI5903
aI6173
aI6971
aI7936
aI8009
aI8251
aI8433
aI8461
aI8526
aI9160
aI9730
aI9990
aI11370
aI11374
aI12090
aI12443
aI12914
aI12933
aI12990
aI13433
aI13598
aI13632
asS'CTGC'
p201
(lp202
I0
aI268
aI336
aI731
aI871
aI1319
aI1418
aI1670
aI1916
aI1948
aI2327
aI2356
aI2619
aI2631
aI3032
aI3345
aI3691
aI4121
aI4143
aI4341
aI4382
aI4414
aI4523
aI4768
aI5104
aI5190
aI5228
aI5430
aI5467
aI5527
aI5561
aI5901
aI6195
aI6775
aI6956
aI7177
aI8037
aI8327
aI8345
aI8441
aI8477
aI8543
aI8663
aI8878
aI9158
aI9407
aI9897
aI10434
aI10437
aI10637
aI10682
aI10905
aI11072
aI11086
aI11201
aI11460
aI11468
aI11761
aI11797
aI11815
aI11833
aI11836
aI12632
aI13139
aI13251
asS'CCGC'
p203
(lp204
I1324
aI1453
aI2209
aI2274
aI2377
aI3196
aI3251
aI3401
aI3526
aI3629
aI4251
aI4526
aI4652
aI4720
aI5132
aI5152
aI5356
aI5868
aI5871
aI6199
aI6953
aI8023
aI8226
aI8247
aI8299
aI8353
aI8489
aI9289
aI9691
aI9826
aI10276
aI10301
aI12597
aI12628
aI13038
aI13179
asS'CAGT'
p205
(lp206
I123
aI503
aI889
aI1099
aI1105
aI1358
aI2316
aI2380
aI2426
aI2551
aI2608
aI2683
aI2824
aI3396
aI3465
aI3680
aI4244
aI4255
aI4759
aI4774
aI5156
aI6012
aI6049
aI6059
aI6341
aI6394
aI6613
aI7037
aI7094
aI7132
aI7301
aI7366
aI7457
aI7673
aI7719
aI7755
aI7854
aI7916
aI8358
aI8515
aI8651
aI8699
aI8755
aI8951
aI9033
aI9054
aI9075
aI9430
aI9603
aI9634
aI9878
aI9917
aI10480
aI10657
aI10662
aI10741
aI11120
aI11139
aI11217
aI11428
aI12129
aI12488
aI12504
aI13182
aI13317
asS'CCTT'
p207
(lp208
I282
aI509
aI816
aI857
aI1082
aI1248
aI1300
aI1347
aI1562
aI1899
aI3071
aI3933
aI4393
aI4409
aI4431
aI4536
aI4658
aI4979
aI5521
aI5530
aI5961
aI6575
aI6906
aI6976
aI7331
aI7735
aI8255
aI8558
aI9966
aI10201
aI10310
aI10474
aI10614
aI10705
aI11035
aI11050
aI11076
aI11175
aI11254
aI11553
aI11652
aI11677
aI11703
aI12280
aI12870
aI13008
aI13262
aI13338
asS'ATCG'
p209
(lp210
I76
aI147
aI158
aI590
aI1200
aI1364
aI1479
aI1831
aI1845
aI2024
aI2806
aI3201
aI3243
aI3491
aI3710
aI3820
aI3843
aI4215
aI4350
aI4366
aI4624
aI4798
aI4971
aI5014
aI5055
aI5236
aI5606
aI6035
aI6436
aI7505
aI8521
aI8748
aI8819
aI9940
aI10017
aI10189
aI10289
aI10351
aI11399
aI12540
aI12702
aI13023
aI13053
aI13545
asS'TAGG'
p211
(lp212
I1284
aI1288
aI1484
aI1542
aI1607
aI1689
aI1726
aI1757
aI1902
aI1979
aI2128
aI2282
aI2399
aI2950
aI3138
aI3581
aI3666
aI3837
aI3968
aI4087
aI4234
aI4279
aI4549
aI4690
aI5567
aI6068
aI6397
aI6869
aI7209
aI7872
aI7961
aI8498
aI8736
aI9026
aI9068
aI9101
aI9143
aI10488
aI11208
aI11280
aI11514
aI12367
aI12822
aI12841
aI13414
aI13623
asS'ATCC'
p213
(lp214
I778
aI782
aI908
aI1022
aI1080
aI1109
aI1297
aI1345
aI1781
aI1896
aI1958
aI2994
aI3249
aI3305
aI4323
aI4338
aI4650
aI5130
aI5354
aI5536
aI5672
aI5865
aI5893
aI6132
aI6161
aI6580
aI6742
aI6840
aI7324
aI7648
aI7777
aI7889
aI8106
aI8185
aI8224
aI8297
aI9982
aI10703
aI10955
aI11093
aI11165
aI11701
aI12230
aI12677
aI13077
aI13346
aI13484
asS'TAGC'
p215
(lp216
I110
aI637
aI647
aI1799
aI1966
aI2323
aI2765
aI3677
aI4015
aI4129
aI4298
aI4701
aI4994
aI5180
aI6192
aI6268
aI7091
aI7328
aI7454
aI7520
aI8309
aI8534
aI8964
aI9417
aI9444
aI9456
aI9619
aI9927
aI10156
aI10285
aI10494
aI10557
aI10641
aI10916
aI11117
aI11422
aI11431
aI11465
aI12110
aI12493
aI13589
asS'CAGA'
p217
(lp218
I317
aI380
aI830
aI1039
aI1064
aI1189
aI1354
aI1555
aI1589
aI2139
aI2733
aI2845
aI2917
aI2967
aI3026
aI3042
aI3098
aI3121
aI3229
aI3308
aI3374
aI3620
aI3817
aI3879
aI4328
aI4359
aI4609
aI4614
aI4820
aI5148
aI6234
aI6319
aI6513
aI6604
aI6663
aI6729
aI7145
aI7249
aI7543
aI7633
aI7789
aI8242
aI8647
aI8686
aI8760
aI9095
aI9111
aI9238
aI9251
aI9275
aI9469
aI9521
aI9776
aI10159
aI10415
aI10529
aI10699
aI10787
aI10924
aI10948
aI11111
aI11134
aI11161
aI11168
aI11204
aI11381
aI11714
aI11722
aI11791
aI11802
aI11878
aI11944
aI11975
aI12040
aI12176
aI12239
aI12298
aI12415
aI12537
aI12636
aI12893
aI13298
aI13441
asS'CCTC'
p219
(lp220
I11
aI289
aI789
aI1243
aI1341
aI1598
aI1880
aI2065
aI2199
aI2271
aI2585
aI3177
aI3235
aI3562
aI3565
aI3588
aI4739
aI4808
aI4913
aI5323
aI5327
aI5674
aI5895
aI6163
aI6348
aI6452
aI6533
aI6899
aI6990
aI7825
aI8040
aI9202
aI9703
aI10041
aI10080
aI10218
aI10252
aI10394
aI10919
aI11388
aI11758
aI12428
aI12902
aI13005
asS'CAGC'
p221
(lp222
I45
aI104
aI230
aI604
aI657
aI769
aI884
aI929
aI939
aI958
aI1312
aI1440
aI1462
aI1552
aI1572
aI1708
aI1942
aI1945
aI2175
aI2431
aI2465
aI2810
aI2821
aI2962
aI3091
aI3301
aI3502
aI3517
aI3660
aI3870
aI4020
aI4729
aI4781
aI5443
aI5455
aI5553
aI6124
aI7142
aI7573
aI8129
aI8284
aI8425
aI9003
aI9332
aI9830
aI9869
aI10111
aI10176
aI10865
aI10945
aI11020
aI11043
aI11503
aI11543
aI11580
aI11672
aI11728
aI11809
aI11987
aI12321
aI12399
aI12548
aI12641
aI12966
aI13190
aI13220
aI13293
aI13314
aI13438
aI13582
asS'CCTA'
p223
(lp224
I541
aI765
aI1282
aI1422
aI1724
aI1960
aI2040
aI2477
aI3183
aI3270
aI3387
aI4699
aI5168
aI5621
aI5762
aI6031
aI6134
aI6433
aI6564
aI6744
aI6798
aI6858
aI6982
aI7056
aI7151
aI7326
aI7833
aI7972
aI8075
aI8230
aI8504
aI9454
aI9582
aI9681
aI9925
aI10146
aI10384
aI10724
aI10971
aI11152
aI11414
aI11435
aI11454
aI11936
aI12365
aI12470
aI12523
aI12669
aI13541
asS'GGCT'
p225
(lp226
I238
aI1034
aI1056
aI1157
aI1970
aI2285
aI2345
aI2629
aI2863
aI2890
aI2894
aI2923
aI3434
aI3649
aI3985
aI4141
aI4313
aI4448
aI5400
aI5510
aI5569
aI6040
aI6356
aI6871
aI6895
aI7638
aI8325
aI8418
aI8668
aI8731
aI9049
aI9480
aI9676
aI10101
aI10810
aI10913
aI10995
aI12256
aI13157
aI13284
asS'CCTG'
p227
(lp228
I222
aI267
aI425
aI784
aI870
aI874
aI992
aI1149
aI1669
aI1731
aI2326
aI2403
aI2998
aI3344
aI3690
aI4221
aI4340
aI4572
aI5254
aI5526
aI5560
aI5926
aI6582
aI6627
aI6935
aI7176
aI7182
aI7230
aI7272
aI7473
aI7837
aI7891
aI8395
aI8674
aI8914
aI9157
aI9181
aI9342
aI9567
aI9900
aI10150
aI10232
aI10433
aI11459
aI11657
aI11691
aI12409
aI12459
aI12631
aI13138
aI13534
aI13602
asS'CAGG'
p229
(lp230
I92
aI236
aI275
aI1465
aI1698
aI1751
aI1764
aI2068
aI2203
aI2744
aI2800
aI2888
aI3352
aI3556
aI3604
aI3612
aI3632
aI3912
aI3942
aI4027
aI4427
aI4636
aI5409
aI6571
aI6642
aI6806
aI6893
aI7190
aI7494
aI7780
aI8385
aI8428
aI8511
aI8666
aI9316
aI9447
aI9494
aI9542
aI9712
aI9948
aI10132
aI10753
aI10910
aI10984
aI11234
aI11295
aI11365
aI11535
aI11629
aI11867
aI11932
aI11966
aI12234
aI12373
aI12510
aI12814
aI12911
aI13282
aI13354
asS'TGGG'
p231
(lp232
I243
aI261
aI298
aI493
aI681
aI845
aI1032
aI1154
aI1733
aI2003
aI2233
aI2389
aI2505
aI2921
aI3483
aI4493
aI4681
aI4921
aI5076
aI5118
aI5122
aI5757
aI6490
aI6967
aI6996
aI7654
aI7899
aI7922
aI8097
aI8682
aI8927
aI9047
aI9296
aI9611
aI9696
aI10195
aI10872
aI11025
aI11304
aI11594
aI12102
aI12253
aI12275
aI12440
aI12477
aI12483
aI12659
aI12873
aI13240
aI13359
aI13604
asS'CTCC'
p233
(lp234
I28
aI430
aI990
aI1599
aI1881
aI2200
aI2242
aI2272
aI2287
aI2706
aI2958
aI3178
aI3236
aI3524
aI3563
aI3735
aI4132
aI4887
aI4892
aI5166
aI5324
aI5328
aI5852
aI6386
aI6453
aI6897
aI7270
aI7765
aI7930
aI8786
aI9051
aI9260
aI9482
aI9678
aI10058
aI10981
aI11451
aI12362
aI12429
aI13006
aI13135
asS'TGGC'
p235
(lp236
I15
aI786
aI860
aI1430
aI1662
aI1747
aI2782
aI2893
aI3261
aI3786
aI3856
aI3988
aI4247
aI4312
aI4447
aI4574
aI4756
aI4762
aI4830
aI5362
aI5509
aI5884
aI5928
aI6039
aI6337
aI6610
aI7487
aI7830
aI8067
aI8139
aI8730
aI9479
aI9875
aI10330
aI10381
aI10589
aI10994
aI11395
aI11738
aI12809
aI13175
aI13373
asS'TGGA'
p237
(lp238
I224
aI312
aI327
aI408
aI677
aI893
aI945
aI1089
aI1385
aI1678
aI2264
aI2365
aI2373
aI2451
aI2521
aI2613
aI2716
aI2772
aI2926
aI3017
aI3074
aI3600
aI4436
aI4605
aI4685
aI5451
aI5714
aI6000
aI6280
aI6823
aI7162
aI7184
aI7415
aI7513
aI7661
aI7696
aI7864
aI8031
aI8775
aI8799
aI9183
aI9569
aI9768
aI9863
aI10317
aI10670
aI10803
aI10814
aI10844
aI10952
aI11569
aI11584
aI11659
aI11851
aI12194
aI12307
aI12312
aI12411
aI12517
aI12828
asS'TCGC'
p239
(lp240
I177
aI210
aI343
aI827
aI1275
aI1350
aI1547
aI2807
aI3244
aI3492
aI3812
aI4080
aI4377
aI4396
aI4542
aI4625
aI4799
aI4851
aI5015
aI5320
aI5689
aI5719
aI7857
aI8159
aI8213
aI8438
aI9978
aI10190
aI10396
aI11006
aI11509
aI11556
aI12541
aI12618
aI13002
aI13054
aI13248
aI13431
asS'TCGA'
p241
(lp242
I68
aI188
aI629
aI849
aI1174
aI1201
aI1846
aI1870
aI2439
aI3255
aI3567
aI4164
aI4455
aI4499
aI4866
aI5056
aI5382
aI5782
aI5897
aI6763
aI6829
aI8164
aI8894
aI9551
aI9762
aI9933
aI9941
aI10018
aI10049
aI10254
aI10269
aI10290
aI11390
aI11400
aI12259
aI13229
aI13463
aI13546
asS'TCGG'
p243
(lp244
I77
aI84
aI1125
aI1365
aI1401
aI1472
aI2556
aI3332
aI3356
aI3542
aI3711
aI3821
aI3844
aI3936
aI3959
aI3982
aI4741
aI4965
aI4972
aI5050
aI5160
aI5237
aI5847
aI5941
aI6008
aI6185
aI6425
aI6910
aI6939
aI6943
aI8262
aI8522
aI10013
aI10082
aI10168
aI10243
aI10571
aI10602
aI10856
aI12082
aI12703
aI12949
aI13629
asS'TGGT'
p245
(lp246
I81
aI634
aI822
aI1151
aI1581
aI2054
aI3102
aI3160
aI3284
aI3512
aI4354
aI4709
aI4777
aI5392
aI5725
aI5974
aI6154
aI6668
aI6695
aI7274
aI7468
aI7475
aI7604
aI8094
aI8390
aI8553
aI8678
aI9354
aI9743
aI9881
aI9902
aI10234
aI10261
aI10503
aI10716
aI10761
aI10781
aI11003
aI11181
aI11902
aI11923
aI12187
aI12316
aI12329
aI12340
aI12391
aI12463
aI13058
aI13233
aI13507
asS'GCCT'
p247
(lp248
I281
aI540
aI788
aI815
aI873
aI2198
aI2325
aI2402
aI3587
aI4430
aI4978
aI5322
aI5525
aI5529
aI5620
aI6030
aI6451
aI6574
aI6981
aI7181
aI7330
aI7824
aI7832
aI8039
aI8254
aI8394
aI8673
aI9899
aI10231
aI10383
aI10393
aI10918
aI11174
aI11935
aI12408
aI12427
aI12630
aI13004
aI13261
aI13337
aI13601
asS'GTGA'
p249
(lp250
I140
aI441
aI1068
aI1133
aI1161
aI1404
aI1982
aI2008
aI2131
aI2637
aI3003
aI3126
aI3162
aI3312
aI3800
aI4037
aI4206
aI4369
aI5089
aI5370
aI6373
aI6718
aI7168
aI7303
aI7530
aI7560
aI7705
aI8517
aI8594
aI8953
aI9077
aI9356
aI10117
aI10619
aI10664
aI10769
aI10859
aI10877
aI10883
aI10928
aI11063
aI11183
aI11645
aI11707
aI11781
aI11862
aI12058
aI12123
aI12342
aI12451
aI12465
aI12772
aI12779
aI12885
aI12928
aI13047
aI13060
asS'CCCG'
p251
(lp252
I128
aI1073
aI1220
aI1323
aI2034
aI2110
aI2244
aI2251
aI2335
aI2595
aI3195
aI3264
aI3700
aI4250
aI4577
aI5692
aI5867
aI6198
aI6455
aI6959
aI8246
aI9673
aI9716
aI9825
aI10275
aI10406
aI11559
aI12627
aI12940
aI12969
aI13178
aI13516
aI13592
asS'TGTT'
p253
(lp254
I571
aI1236
aI1976
aI2049
aI2187
aI2261
aI2305
aI2308
aI2516
aI2571
aI2755
aI3067
aI3135
aI3809
aI3949
aI3975
aI4067
aI4150
aI4512
aI4546
aI4596
aI5094
aI5177
aI5416
aI5728
aI5938
aI6105
aI6148
aI6312
aI6500
aI7086
aI7290
aI7408
aI7608
aI7814
aI8217
aI8259
aI8853
aI8988
aI9243
aI9322
aI9344
aI9411
aI9921
aI10094
aI10402
aI10448
aI10500
aI10633
aI10646
aI11012
aI11735
aI11926
aI12026
aI12029
aI12267
aI12377
aI12607
aI12848
aI13366
aI13495
asS'GATC'
p255
(lp256
I20
aI42
aI146
aI157
aI294
aI415
aI726
aI851
aI907
aI1988
aI2508
aI2561
aI2981
aI2993
aI3200
aI3424
aI3819
aI3995
aI4039
aI4273
aI4282
aI4337
aI4479
aI4623
aI4649
aI5280
aI5353
aI6096
aI6253
aI6635
aI6677
aI7401
aI7441
aI9533
aI10016
aI10135
aI10188
aI10350
aI10954
aI11275
aI11637
aI11700
aI12245
aI12300
aI12539
aI12997
aI13022
asS'TCGT'
p257
(lp258
I148
aI159
aI591
aI1480
aI1832
aI1933
aI2025
aI2384
aI3202
aI3834
aI4216
aI4351
aI4367
aI4666
aI5368
aI5378
aI5483
aI5607
aI5610
aI5613
aI5731
aI5875
aI5978
aI6036
aI6101
aI6165
aI6437
aI6992
aI7506
aI7827
aI7908
aI8749
aI8820
aI9593
aI9858
aI9911
aI10006
aI10115
aI10352
aI11732
aI11959
aI12685
aI12904
aI13024
aI13107
aI13224
asS'TAGA'
p259
(lp260
I390
aI485
aI798
aI901
aI933
aI1409
aI1518
aI1524
aI1794
aI1820
aI2856
aI3052
aI3449
aI3683
aI4094
aI4259
aI4647
aI4735
aI4989
aI5083
aI5098
aI5351
aI5395
aI5486
aI5646
aI5777
aI5790
aI5947
aI6298
aI6328
aI6754
aI7040
aI7360
aI7447
aI7622
aI7690
aI8114
aI8232
aI8338
aI8400
aI8470
aI8882
aI8979
aI9138
aI9284
aI9512
aI10090
aI10222
aI10364
aI10463
aI11015
aI11273
aI11314
aI11319
aI11416
aI11641
aI12106
aI12472
aI12742
aI13064
aI13490
asS'ACAG'
p261
(lp262
I316
aI502
aI768
aI883
aI957
aI1038
aI1063
aI1357
aI1588
aI1697
aI1707
aI1941
aI2174
aI2315
aI2820
aI2844
aI2887
aI2916
aI3228
aI3516
aI3603
aI3619
aI3659
aI3816
aI4026
aI4327
aI4608
aI4613
aI4635
aI5442
aI5454
aI5552
aI6058
aI6123
aI6512
aI7141
aI7365
aI7542
aI7632
aI7672
aI7915
aI8128
aI8283
aI8384
aI8646
aI8650
aI9110
aI9250
aI9541
aI10414
aI10528
aI10656
aI11019
aI11042
aI11133
aI11138
aI11294
aI11427
aI11542
aI11579
aI11713
aI11965
aI11986
aI12039
aI12238
aI12297
aI12320
aI12372
aI12414
aI12487
aI12547
aI13219
aI13292
aI13581
asS'CGGC'
p263
(lp264
I85
aI1194
aI1969
aI3433
aI3455
aI3712
aI4211
aI5273
aI5386
aI5399
aI5470
aI5694
aI6009
aI6174
aI6228
aI6972
aI8252
aI8527
aI9675
aI10100
aI10244
aI12984
aI13434
aI13594
aI13599
aI13630
asS'ACAC'
p265
(lp266
I117
aI473
aI705
aI839
aI867
aI1271
aI1330
aI1559
aI1714
aI1769
aI2700
aI3080
aI3232
aI3475
aI3729
aI4063
aI4105
aI4332
aI4405
aI4464
aI4641
aI4872
aI5544
aI5682
aI6711
aI6987
aI7148
aI7630
aI7982
aI8034
aI8368
aI9472
aI9628
aI9639
aI9781
aI9783
aI9843
aI9962
aI10121
aI10443
aI10526
aI10694
aI11600
aI12066
aI12520
aI12867
aI13528
aI13560
aI13610
asS'CACC'
p267
(lp268
I233
aI286
aI792
aI868
aI1246
aI1560
aI1576
aI1638
aI1770
aI1878
aI2032
aI2216
aI2220
aI2581
aI2701
aI2729
aI3181
aI3233
aI3560
aI3892
aI4157
aI4333
aI4406
aI4465
aI4811
aI4901
aI5028
aI6346
aI6856
aI6988
aI7054
aI7149
aI7733
aI7851
aI8072
aI8188
aI8369
aI8487
aI8828
aI8912
aI9154
aI9465
aI9600
aI9701
aI9823
aI9963
aI10122
aI10216
aI10299
aI10612
aI10695
aI12204
aI12381
aI12457
aI12521
aI12534
aI12868
aI12900
aI13254
aI13513
aI13539
aI13573
asS'ACAA'
p269
(lp270
I134
aI358
aI434
aI544
aI841
aI1392
aI1716
aI1992
aI2292
aI2393
aI2473
aI2660
aI2786
aI4555
aI4746
aI4882
aI5001
aI5211
aI5516
aI5665
aI5684
aI5702
aI5765
aI5786
aI6018
aI6245
aI6415
aI6521
aI6713
aI6844
aI7073
aI7120
aI7154
aI7201
aI7218
aI7263
aI7683
aI7806
aI7844
aI7984
aI8456
aI8598
aI8808
aI8959
aI9106
aI9171
aI9216
aI9625
aI9687
aI9836
aI10466
aI10627
aI10690
aI10728
aI10772
aI10888
aI11097
aI11100
aI11186
aI11484
aI11616
aI11908
aI12421
aI13289
aI13657
aI13660
asS'ATCA'
p271
(lp272
I43
aI73
aI416
aI499
aI522
aI852
aI1019
aI1227
aI1254
aI1989
aI2137
aI2562
aI2579
aI2606
aI2673
aI2676
aI2742
aI2899
aI3290
aI3299
aI3425
aI3851
aI3877
aI3996
aI4040
aI4274
aI4293
aI4480
aI5026
aI5541
aI5588
aI5599
aI6047
aI6254
aI6392
aI6569
aI6594
aI6636
aI6640
aI6678
aI6758
aI7993
aI8150
aI8173
aI8196
aI8612
aI8635
aI8659
aI8722
aI8842
aI9632
aI9915
aI10545
aI10610
aI10739
aI10826
aI11056
aI11109
aI11276
aI11670
aI12285
aI12301
aI12356
aI12722
aI13012
asS'ACAT'
p273
(lp274
I447
aI707
aI715
aI744
aI997
aI1198
aI1843
aI2370
aI2496
aI2671
aI2911
aI2939
aI3154
aI3288
aI3708
aI3759
aI4265
aI4490
aI4823
aI4874
aI5584
aI5863
aI5933
aI6111
aI6495
aI6567
aI6964
aI7012
aI7214
aI7658
aI7991
aI8104
aI8796
aI8901
aI8939
aI8975
aI9086
aI9392
aI9474
aI9630
aI9938
aI10342
aI10346
aI10608
aI10737
aI10931
aI10965
aI11288
aI11743
aI12568
aI12592
aI12614
aI12689
aI12725
aI13454
asS'CGGG'
p275
(lp276
I4
aI170
aI1366
aI1378
aI1473
aI1626
aI1630
aI1802
aI2343
aI2597
aI3333
aI3647
aI3715
aI3790
aI3924
aI3960
aI3983
aI4031
aI4742
aI4814
aI4904
aI4966
aI4973
aI5340
aI5458
aI5475
aI5904
aI6073
aI6944
aI8416
aI8434
aI8462
aI8523
aI9485
aI9985
aI10603
aI10808
aI11371
aI12091
aI12583
aI12915
aI12950
aI12991
aI13080
aI13154
aI13275
asS'CTAC'
p277
(lp278
I542
aI766
aI1036
aI1058
aI1061
aI1850
aI2180
aI2494
aI3271
aI3388
aI4118
aI4450
aI4462
aI5038
aI5183
aI5402
aI5440
aI5622
aI5700
aI5763
aI6121
aI6565
aI6889
aI7152
aI7642
aI7834
aI7842
aI7973
aI8304
aI8824
aI9558
aI9999
aI10038
aI10103
aI10147
aI11046
aI11213
aI11325
aI11478
aI11824
aI12019
aI12500
aI12524
aI12554
aI12794
aI12852
aI13195
aI13217
aI13388
asS'AGAC'
p279
(lp280
I167
aI216
aI671
aI703
aI881
aI1190
aI1355
aI1519
aI1795
aI1821
aI1910
aI2019
aI2192
aI2368
aI2442
aI2484
aI2649
aI2842
aI3174
aI3230
aI3375
aI3885
aI4488
aI4581
aI4736
aI4821
aI5149
aI5214
aI5396
aI6329
aI6413
aI6561
aI7146
aI7227
aI7391
aI7847
aI8243
aI8401
aI8648
aI9239
aI9371
aI9470
aI9586
aI9936
aI10143
aI10160
aI10464
aI10674
aI10735
aI10902
aI11711
aI11948
aI12016
aI12416
aI12973
aI13299
aI13385
aI13395
aI13477
asS'AGAA'
p281
(lp282
I318
aI322
aI352
aI381
aI486
aI489
aI831
aI1040
aI1136
aI1499
aI1525
aI1556
aI2140
aI2295
aI2566
aI2688
aI2734
aI2817
aI2846
aI2857
aI2968
aI3008
aI3013
aI3027
aI3045
aI3122
aI3224
aI3472
aI3621
aI3684
aI3882
aI4095
aI4329
aI4610
aI4615
aI4618
aI5084
aI5099
aI5289
aI5487
aI5773
aI5948
aI6064
aI6235
aI6322
aI6598
aI6664
aI6703
aI6730
aI6736
aI6755
aI6770
aI6865
aI6914
aI7041
aI7108
aI7172
aI7313
aI7343
aI7349
aI7354
aI7361
aI7418
aI7544
aI7623
aI7679
aI7691
aI7790
aI7895
aI8004
aI8564
aI8607
aI8621
aI8687
aI8936
aI8982
aI8997
aI9096
aI9285
aI9506
aI9513
aI9522
aI9527
aI9771
aI9777
aI9811
aI9814
aI9994
aI10365
aI10523
aI10535
aI10553
aI10700
aI10797
aI10818
aI11016
aI11112
aI11135
aI11162
aI11169
aI11229
aI11315
aI11320
aI11417
aI11792
aI11855
aI11872
aI11879
aI11913
aI11945
aI11976
aI12227
aI12240
aI12346
aI12783
aI12894
aI13089
aI13120
aI13403
asS'ATTT'
p283
(lp284
I97
aI201
aI330
aI452
aI460
aI559
aI709
aI917
aI966
aI1604
aI1655
aI2165
aI2418
aI2641
aI2694
aI3276
aI3318
aI3720
aI4011
aI4091
aI4180
aI5333
aI5857
aI6128
aI6182
aI6497
aI6589
aI6607
aI6929
aI7316
aI7461
aI7577
aI7723
aI7760
aI7942
aI8200
aI8315
aI8850
aI8891
aI9254
aI9271
aI9476
aI9554
aI9649
aI9893
aI10452
aI10538
aI10758
aI10933
aI11605
aI11765
aI12076
aI12115
aI12387
aI12764
aI12878
aI12958
aI13103
aI13407
aI13422
asS'AGAG'
p285
(lp286
I34
aI391
aI577
aI696
aI799
aI879
aI934
aI1065
aI1184
aI1410
aI1497
aI1985
aI2017
aI2724
aI3006
aI3043
aI3053
aI3172
aI3309
aI3450
aI3880
aI4226
aI5137
aI5139
aI5498
aI5647
aI5778
aI5791
aI6320
aI6378
aI6442
aI6524
aI7115
aI7195
aI7234
aI7250
aI7352
aI7448
aI7450
aI7634
aI7793
aI7904
aI8115
aI8233
aI8322
aI8339
aI8466
aI8761
aI8883
aI8920
aI8922
aI8980
aI9112
aI9369
aI9438
aI9525
aI10052
aI10054
aI10185
aI10416
aI10425
aI10530
aI10833
aI10925
aI11238
aI11337
aI11588
aI11642
aI11715
aI11723
aI11803
aI11886
aI12014
aI12177
aI12225
aI12473
aI12637
aI12743
aI13065
asS'GGAG'
p287
(lp288
I32
aI277
aI409
aI537
aI669
aI946
aI1090
aI1182
aI1368
aI1414
aI1692
aI1790
aI1905
aI1908
aI2149
aI2366
aI2522
aI2558
aI2717
aI2773
aI2904
aI2978
aI3703
aI3970
aI4138
aI5162
aI5201
aI5248
aI5943
aI6400
aI6559
aI6808
aI6912
aI7185
aI7416
aI7662
aI7697
aI7865
aI7902
aI8002
aI8084
aI8264
aI8464
aI9436
aI9449
aI9496
aI9769
aI9992
aI10164
aI10170
aI10183
aI10533
aI10986
aI11027
aI11236
aI11306
aI11340
aI11570
aI11573
aI11870
aI12093
aI12180
aI12512
aI12705
aI12829
aI12843
aI12993
aI13087
asS'CTAA'
p289
(lp290
I721
aI741
aI1001
aI1119
aI1306
aI2041
aI2089
aI2478
aI2838
aI3083
aI3184
aI3436
aI3507
aI3576
aI4124
aI4346
aI4472
aI5169
aI5312
aI5580
aI5603
aI6025
aI6032
aI6135
aI6288
aI6483
aI6618
aI6649
aI6688
aI6745
aI6859
aI7047
aI7057
aI7285
aI7596
aI8076
aI8630
aI9038
aI9577
aI9583
aI9808
aI10385
aI10725
aI10972
aI11039
aI11258
aI11436
aI11455
aI11937
aI11998
aI12003
aI12010
aI13114
aI13391
aI13542
asS'GGGT'
p291
(lp292
I5
aI245
aI299
aI846
aI1474
aI1544
aI1632
aI1804
aI2235
aI3485
aI3583
aI3634
aI3791
aI3839
aI3926
aI4032
aI4494
aI4682
aI4816
aI4922
aI4974
aI5119
aI5142
aI5294
aI6945
aI6997
aI7423
aI7925
aI7963
aI8387
aI8435
aI9146
aI9486
aI9986
aI10196
aI10258
aI10873
aI12103
aI12478
aI12918
aI13241
aI13626
asS'ATTG'
p293
(lp294
I39
aI197
aI310
aI583
aI904
aI1538
aI2170
aI2498
aI2503
aI2514
aI2547
aI2569
aI3087
aI3510
aI4195
aI4510
aI4841
aI5300
aI5414
aI5617
aI5723
aI6152
aI6278
aI6408
aI7060
aI7077
aI7127
aI7373
aI7466
aI7652
aI8278
aI9123
aI9132
aI9665
aI10328
aI10548
aI10587
aI10710
aI10714
aI10779
aI11524
aI11624
aI12087
aI12424
aI12438
aI13324
aI13456
aI13493
aI13645
asS'CTCT'
p295
(lp296
I12
aI153
aI290
aI339
aI625
aI729
aI988
aI1140
aI1304
aI1397
aI2178
aI3589
aI3651
aI4914
aI4986
aI5651
aI5881
aI5912
aI6119
aI6143
aI6219
aI6722
aI6778
aI7525
aI7640
aI8041
aI8302
aI8363
aI8541
aI8550
aI8733
aI9258
aI9704
aI9792
aI9930
aI10042
aI10044
aI10219
aI10896
aI10920
aI11067
aI11301
aI11681
aI11759
aI12498
aI13193
aI13613
asS'ATTC'
p297
(lp298
I66
aI175
aI377
aI738
aI1170
aI1436
aI1594
aI1886
aI1931
aI2616
aI2869
aI3095
aI3867
aI4115
aI4241
aI4287
aI4533
aI4849
aI5010
aI5269
aI5687
aI5717
aI5831
aI6259
aI6307
aI6726
aI6847
aI6903
aI7001
aI7014
aI7491
aI7599
aI8058
aI8144
aI8374
aI8903
aI8941
aI9088
aI9591
aI9805
aI9866
aI9976
aI10066
aI10241
aI10847
aI11384
aI11411
aI11507
aI12359
aI12531
aI12573
aI12616
aI12947
aI13429
aI13549
asS'GGAT'
p299
(lp300
I145
aI328
aI678
aI894
aI1434
aI1648
aI2452
aI2469
aI2507
aI2599
aI2614
aI2653
aI3075
aI3718
aI4089
aI4281
aI4686
aI4943
aI5078
aI5174
aI5715
aI6252
aI6587
aI9220
aI9864
aI10015
aI10134
aI10419
aI10756
aI10845
aI10953
aI11352
aI12313
aI12404
aI12445
aI12529
aI12789
aI12956
aI12996
aI13021
aI13356
asS'ATTA'
p301
(lp302
I355
aI368
aI527
aI896
aI1407
aI1839
aI1926
aI2663
aI2830
aI3829
aI4008
aI4053
aI4262
aI4296
aI4601
aI4688
aI4869
aI4992
aI5023
aI5679
aI5736
aI5917
aI6044
aI6113
aI6301
aI6486
aI6545
aI6684
aI6706
aI6833
aI7070
aI7483
aI7627
aI7959
aI8176
aI8782
aI8860
aI8962
aI8977
aI9016
aI9058
aI9141
aI9394
aI9510
aI9684
aI9748
aI10088
aI10542
aI11115
aI11124
aI11271
aI11347
aI12006
aI12033
aI12135
aI12672
aI12712
aI12820
aI13092
aI13342
aI13577
aI13587
aI13621
asS'AGAT'
p303
(lp304
I557
aI644
aI902
aI1006
aI1532
aI1590
aI1987
aI2524
aI2560
aI2918
aI2980
aI3055
aI3064
aI3099
aI3818
aI3865
aI4193
aI4260
aI4360
aI4475
aI4622
aI4648
aI4990
aI5279
aI5352
aI6299
aI6406
aI6514
aI6605
aI6622
aI6820
aI7102
aI7400
aI7616
aI8123
aI8471
aI8924
aI9139
aI9252
aI9276
aI9387
aI10021
aI10064
aI10091
aI10187
aI10223
aI10788
aI10949
aI11195
aI11205
aI11223
aI11274
aI11382
aI11636
aI12041
aI12107
aI12182
aI12244
aI12299
aI12538
aI13442
aI13491
asS'GCGT'
p305
(lp306
I55
aI87
aI179
aI345
aI1165
aI1277
aI1382
aI1512
aI1760
aI2006
aI2152
aI2158
aI2230
aI2433
aI2713
aI3607
aI4519
aI4770
aI5230
aI5358
aI5462
aI5742
aI5807
aI5822
aI5971
aI6241
aI6527
aI6551
aI7687
aI7810
aI8017
aI8100
aI8161
aI8335
aI9198
aI9425
aI9850
aI10643
aI10892
aI11838
aI12165
aI12599
aI12770
aI12806
aI12825
aI13040
aI13303
aI13310
asS'ACCG'
p307
(lp308
I793
aI1044
aI1192
aI1614
aI1771
aI2221
aI2376
aI2528
aI3571
aI3748
aI3893
aI4209
aI4334
aI4812
aI4902
aI4961
aI5151
aI5624
aI6952
aI8022
aI8189
aI8352
aI8488
aI9288
aI9615
aI9690
aI10300
aI10507
aI11480
aI11895
aI12526
aI12663
aI12786
aI13037
aI13084
aI13167
aI13255
asS'TGAT'
p309
(lp310
I41
aI156
aI199
aI293
aI414
aI906
aI1215
aI1264
aI1405
aI2168
aI2405
aI2512
aI2692
aI2947
aI2992
aI3127
aI3145
aI3157
aI3423
aI3480
aI4038
aI4304
aI4478
aI6095
aI6272
aI6634
aI6676
aI7079
aI7712
aI7957
aI8397
aI8691
aI8703
aI9078
aI9269
aI9336
aI9351
aI9532
aI10349
aI10712
aI10791
aI10878
aI11358
aI11522
aI11684
aI11699
aI11828
aI12571
aI12656
aI12751
aI12881
aI13048
aI13061
aI13203
aI13237
aI13333
asS'TTTA'
p311
(lp312
I203
aI331
aI511
aI560
aI710
aI1491
aI1605
aI2117
aI2419
aI2827
aI3277
aI3549
aI3656
aI4013
aI4092
aI4232
aI4507
aI4861
aI5065
aI5096
aI5335
aI5532
aI6129
aI6359
aI6591
aI6930
aI7281
aI7949
aI8112
aI8202
aI8316
aI8805
aI8992
aI9415
aI10355
aI10453
aI10539
aI10707
aI10935
aI11312
aI11766
aI11773
aI11993
aI12249
aI12864
asS'TTTC'
p313
(lp314
I654
aI762
aI825
aI926
aI1316
aI1445
aI1569
aI2161
aI2643
aI2757
aI3117
aI3213
aI3330
aI3384
aI3929
aI4153
aI4318
aI4497
aI5376
aI6006
aI6183
aI6423
aI6908
aI7244
aI7462
aI7744
aI7771
aI7945
aI8219
aI8538
aI8836
aI8892
aI9255
aI9272
aI9462
aI9555
aI9658
aI9708
aI9894
aI9907
aI10047
aI10096
aI10377
aI10649
aI10721
aI10784
aI11177
aI11475
aI11970
aI12078
aI12116
aI12352
aI12907
aI12959
aI13105
aI13160
aI13369
aI13408
asS'TTTG'
p315
(lp316
I58
aI98
aI453
aI462
aI818
aI918
aI943
aI968
aI1087
aI1656
aI2155
aI2166
aI2611
aI2695
aI3319
aI3538
aI3640
aI3721
aI3978
aI4181
aI4310
aI4938
aI5220
aI5859
aI6498
aI6608
aI6978
aI7317
aI7427
aI7578
aI7724
aI7761
aI7816
aI8014
aI8257
aI8587
aI8741
aI8851
aI9150
aI9320
aI9379
aI9477
aI9650
aI9847
aI10759
aI11191
aI11606
aI12051
aI12168
aI12389
aI12765
aI12879
aI13423
aI13448
aI13505
asS'CAAG'
p317
(lp318
I135
aI165
aI418
aI545
aI549
aI701
aI1393
aI1530
aI1641
aI1739
aI1854
aI1993
aI2293
aI2564
aI2588
aI2901
aI3222
aI3520
aI3530
aI3863
aI3998
aI4135
aI4191
aI4556
aI4585
aI5212
aI5632
aI5666
aI5703
aI6448
aI6522
aI6596
aI6659
aI6714
aI6818
aI7202
aI7219
aI7336
aI7589
aI7677
aI7684
aI7739
aI7807
aI7845
aI8614
aI8637
aI8844
aI8945
aI9008
aI9091
aI9217
aI9504
aI10062
aI10521
aI10579
aI10773
aI10889
aI11187
aI11335
aI11634
aI11778
aI12207
aI12223
aI13349
aI13383
aI13469
aI13552
aI13661
asS'ACCA'
p319
(lp320
I163
aI234
aI444
aI530
aI602
aI748
aI1097
aI1577
aI1639
aI1852
aI2021
aI2702
aI3273
aI3554
aI4158
aI4583
aI5029
aI5266
aI5407
aI5549
aI5768
aI5954
aI6652
aI6657
aI6891
aI7123
aI7299
aI7547
aI7669
aI7731
aI7849
aI7852
aI8370
aI8826
aI8829
aI9601
aI10130
aI10214
aI10577
aI11215
aI11232
aI11747
aI11776
aI11983
aI12202
aI12205
aI12502
aI12535
aI12796
aI13397
aI13511
aI13525
aI13571
aI13574
aI13642
asS'GCAG'
p321
(lp322
I91
aI829
aI938
aI1464
aI1551
aI1554
aI1944
aI2379
aI2430
aI2464
aI2550
aI2809
aI2823
aI2966
aI3025
aI3090
aI3373
aI3501
aI3631
aI3679
aI4758
aI6011
aI6603
aI6612
aI6662
aI6805
aI7093
aI7144
aI7456
aI7572
aI7788
aI8241
aI8357
aI8427
aI8514
aI8665
aI8685
aI9094
aI9446
aI9775
aI9877
aI10158
aI10661
aI10864
aI10947
aI11119
aI11203
aI11502
aI11790
aI11866
aI12398
aI12640
aI12892
aI12965
aI13181
aI13316
aI13353
aI13440
asS'CAAC'
p323
(lp324
I481
aI566
aI600
aI854
aI1112
aI1586
aI1939
aI2079
aI2313
aI2474
aI2541
aI2678
aI3921
aI4442
aI5225
aI5244
aI5446
aI5514
aI5636
aI5766
aI7121
aI7155
aI7437
aI7804
aI8766
aI9626
aI9688
aI10441
aI10963
aI11032
aI11098
aI11528
aI11540
aI11577
aI11617
aI11741
aI11755
aI11893
aI11906
aI12303
aI12680
aI13290
aI13658
asS'CAAA'
p325
(lp326
I359
aI435
aI457
aI532
aI954
aI972
aI1025
aI1051
aI1229
aI1294
aI1711
aI1717
aI1776
aI1815
aI2085
aI2277
aI2330
aI2394
aI2576
aI2623
aI2760
aI2787
aI2884
aI3427
aI4482
aI4883
aI5002
aI5031
aI5517
aI5770
aI5798
aI5828
aI6019
aI6246
aI6256
aI6263
aI6389
aI6416
aI6654
aI6672
aI6680
aI6782
aI6850
aI7074
aI7264
aI7294
aI7396
aI7431
aI7537
aI7549
aI7613
aI7747
aI7774
aI7876
aI7985
aI8147
aI8576
aI8599
aI8712
aI8724
aI8789
aI8809
aI9107
aI9119
aI9172
aI9205
aI9420
aI9802
aI10140
aI10179
aI10592
aI10628
aI10691
aI10729
aI10828
aI10837
aI10850
aI11101
aI11106
aI11909
aI12097
aI12214
aI12587
aI13074
asS'TGAG'
p327
(lp328
I141
aI214
aI642
aI1134
aI1143
aI1162
aI1983
aI2009
aI2190
aI2647
aI2722
aI2815
aI3004
aI3163
aI3313
aI3470
aI3801
aI4562
aI4670
aI5090
aI5260
aI5658
aI6293
aI6353
aI6506
aI6584
aI6701
aI6734
aI7232
aI7561
aI7580
aI7893
aI8570
aI8625
aI8934
aI8954
aI9327
aI10371
aI10620
aI10665
aI10733
aI10766
aI11079
aI11193
aI11863
aI11884
aI12047
aI12120
aI12452
aI12558
aI12754
aI12929
aI13118
aI13265
aI13401
aI13498
aI13647
asS'TTTT'
p329
(lp330
I202
aI461
aI925
aI967
aI1444
aI1490
aI2642
aI3116
aI3654
aI3655
aI3977
aI4012
aI4152
aI4231
aI4316
aI4317
aI5334
aI5858
aI6590
aI7280
aI7426
aI7770
aI7943
aI7944
aI8013
aI8201
aI8586
aI8740
aI8804
aI8834
aI8835
aI8990
aI8991
aI9149
aI9378
aI9413
aI9414
aI9707
aI10376
aI10648
aI10719
aI10720
aI10934
aI11474
aI12077
aI12388
aI13104
aI13368
asS'TGAA'
p331
(lp332
I192
aI349
aI574
aI585
aI615
aI620
aI876
aI994
aI1009
aI1069
aI1535
aI2132
aI2459
aI2500
aI2602
aI2638
aI2668
aI2697
aI2850
aI2866
aI2985
aI3061
aI3169
aI3723
aI4223
aI4826
aI5371
aI5572
aI5708
aI6374
aI6410
aI6476
aI6629
aI6794
aI7025
aI7067
aI7169
aI7255
aI7304
aI7388
aI7531
aI7706
aI7818
aI7953
aI8280
aI8518
aI8589
aI8595
aI8916
aI9021
aI9042
aI9063
aI9081
aI9125
aI9225
aI9357
aI9384
aI9756
aI9973
aI10118
aI10226
aI10359
aI10422
aI10550
aI10746
aI10794
aI10860
aI10884
aI10899
aI10998
aI11405
aI11488
aI11646
aI11666
aI11693
aI11708
aI11782
aI12059
aI12070
aI12154
aI12343
aI12773
aI12780
aI12886
aI13206
aI13326
aI13458
aI13564
asS'TGAC'
p333
(lp334
I25
aI442
aI471
aI1205
aI1239
aI1328
aI1565
aI1810
aI2099
aI2172
aI3148
aI3440
aI3696
aI4024
aI4207
aI4370
aI4750
aI4999
aI5309
aI5861
aI5952
aI6056
aI6719
aI6874
aI6950
aI7969
aI8126
aI9339
aI9390
aI9834
aI9960
aI10307
aI10340
aI10566
aI10679
aI10770
aI10929
aI11064
aI11184
aI11608
aI11687
aI12124
aI12170
aI12466
aI12759
asS'GCAT'
p335
(lp336
I173
aI465
aI1225
aI1664
aI1701
aI1998
aI2320
aI2767
aI2812
aI3093
aI3303
aI3693
aI4006
aI4213
aI4567
aI4674
aI4713
aI4969
aI5298
aI5412
aI5721
aI5891
aI6126
aI6176
aI7489
aI7575
aI7727
aI8329
aI8529
aI8640
aI9130
aI9310
aI9693
aI9980
aI10239
aI10287
aI10491
aI10597
aI10841
aI10867
aI11022
aI11269
aI11397
aI11462
aI11505
aI11511
aI11763
aI12161
aI12620
aI12700
aI12876
aI12945
aI13141
aI13420
asS'CAAT'
p337
(lp338
I64
aI808
aI842
aI1256
aI2414
aI2661
aI3292
aI3738
aI3853
aI3965
aI4704
aI4747
aI4933
aI5348
aI5434
aI5677
aI5685
aI5787
aI5855
aI6159
aI6638
aI6751
aI6845
aI7125
aI7322
aI8198
aI8313
aI8372
aI8457
aI8495
aI8906
aI8960
aI9012
aI9837
aI9886
aI10467
aI10497
aI10686
aI11446
aI11485
aI11848
aI12191
aI12287
aI12385
aI12422
aI12436
aI12696
aI12710
aI13014
aI13030
aI13585
asS'GCCG'
p339
(lp340
I2
aI17
aI659
aI666
aI771
aI1179
aI1468
aI2012
aI2094
aI2124
aI2208
aI2907
aI3431
aI3453
aI3595
aI3662
aI3788
aI3797
aI3992
aI4001
aI4101
aI4175
aI4198
aI4203
aI4525
aI4627
aI4693
aI4853
aI5017
aI5275
aI5422
aI5491
aI5748
aI5870
aI6071
aI6077
aI8443
aI8966
aI10332
aI11264
aI11517
aI12401
aI12581
aI12596
aI12746
aI12925
asS'CTGT'
p341
(lp342
I240
aI403
aI426
aI607
aI1131
aI1159
aI1235
aI1456
aI1889
aI1919
aI2048
aI2347
aI2490
aI2754
aI2872
aI2999
aI3134
aI3591
aI3873
aI4066
aI4545
aI5255
aI5564
aI5653
aI5937
aI5994
aI6145
aI6221
aI6936
aI7444
aI7838
aI8088
aI8216
aI8293
aI8675
aI9192
aI9242
aI9343
aI9410
aI9573
aI10151
aI10516
aI11009
aI11566
aI12266
aI12324
aI12337
aI12460
aI12858
aI13147
aI13411
aI13535
asS'GGGG'
p343
(lp344
I244
aI1155
aI1379
aI1609
aI1610
aI1631
aI1734
aI1803
aI2234
aI3363
aI3484
aI3716
aI3925
aI3961
aI4815
aI5293
aI5459
aI6074
aI6968
aI7900
aI7923
aI7924
aI9145
aI9499
aI9736
aI12254
aI12916
aI12917
aI13155
aI13605
aI13625
asS'TCAT'
p345
(lp346
I74
aI308
aI366
aI523
aI1020
aI1168
aI1343
aI1362
aI1447
aI1477
aI1515
aI1807
aI1894
aI2163
aI2533
aI2674
aI2794
aI2804
aI3215
aI4041
aI4051
aI4113
aI4289
aI4294
aI4599
aI4836
aI5012
aI5234
aI5734
aI5915
aI6309
aI6350
aI6578
aI6698
aI6901
aI6927
aI7016
aI7159
aI7405
aI7464
aI7481
aI7601
aI7758
aI7861
aI7940
aI7994
aI8151
aI8174
aI8194
aI8272
aI8780
aI8848
aI9306
aI9746
aI10070
aI10546
aI11057
aI11248
aI11277
aI11345
aI11819
aI12023
aI12283
aI12354
aI12357
aI12649
aI13130
aI13306
aI13320
aI13556
asS'AATT'
p347
(lp348
I65
aI196
aI354
aI451
aI459
aI916
aI965
aI1537
aI1930
aI2502
aI2568
aI2640
aI2662
aI2868
aI3086
aI3509
aI4179
aI4840
aI5022
aI5678
aI5686
aI5830
aI5856
aI6181
aI6258
aI6485
aI6544
aI6683
aI6705
aI6832
aI6846
aI7059
aI7069
aI7076
aI7126
aI7315
aI7372
aI7598
aI7626
aI8199
aI8314
aI8373
aI8859
aI8890
aI8961
aI9122
aI9509
aI9648
aI9664
aI9804
aI9975
aI10087
aI10537
aI10778
aI11114
aI11623
aI12005
aI12086
aI12386
aI12423
aI12437
aI12711
aI13091
aI13102
aI13406
aI13586
asS'TATG'
p349
(lp350
I513
aI950
aI1030
aI1262
aI1618
aI2001
aI2052
aI2185
aI2225
aI2303
aI3445
aI3468
aI3907
aI4434
aI4560
aI4603
aI5074
aI5316
aI5656
aI6364
aI6488
aI6923
aI6948
aI7485
aI7951
aI7967
aI8029
aI8065
aI8178
aI9223
aI9294
aI9669
aI10357
aI12251
aI12273
aI12290
aI13269
asS'CTCG'
p351
(lp352
I187
aI209
aI1173
aI1274
aI3254
aI3566
aI4376
aI4665
aI4740
aI5482
aI5874
aI5896
aI6164
aI6762
aI6828
aI6991
aI7826
aI8212
aI9910
aI9932
aI10005
aI10012
aI10081
aI10114
aI10253
aI10395
aI10601
aI11389
aI11731
aI11958
aI12081
aI12258
aI12903
aI13223
aI13462
asS'TATA'
p353
(lp354
I735
aI962
aI983
aI1704
aI3551
aI3765
aI4946
aI4982
aI5284
aI5752
aI5919
aI6204
aI6800
aI6812
aI6921
aI6984
aI7377
aI7502
aI7997
aI8275
aI8349
aI9166
aI10470
aI11154
aI11841
aI12035
aI12565
aI12728
aI12733
aI13043
aI13164
asS'CTAT'
p355
(lp356
I183
aI375
aI581
aI734
aI961
aI1017
aI1261
aI1653
aI1829
aI1837
aI1961
aI2302
aI3489
aI4285
aI4916
aI5128
aI5283
aI6042
aI6363
aI6434
aI6724
aI6799
aI6983
aI8056
aI8171
aI8222
aI8348
aI8746
aI9165
aI9682
aI9891
aI10326
aI11153
aI11409
aI12113
aI12133
aI12272
aI12564
aI12670
aI12732
aI13163
asS'TATC'
p357
(lp358
I72
aI184
aI333
aI1018
aI1108
aI1253
aI1780
aI1830
aI1962
aI2741
aI2898
aI3242
aI3298
aI3490
aI3842
aI3850
aI3876
aI4292
aI4677
aI4917
aI5025
aI5054
aI5067
aI5129
aI5587
aI5598
aI6046
aI6131
aI6435
aI6593
aI6839
aI7504
aI7647
aI7888
aI8172
aI8223
aI8296
aI8634
aI8658
aI8721
aI8747
aI8818
aI9265
aI9914
aI10009
aI10323
aI10544
aI13011
aI13483
asS'AATC'
p359
(lp360
I385
aI521
aI589
aI777
aI809
aI1079
aI1296
aI2136
aI2578
aI2605
aI4349
aI4365
aI4797
aI4934
aI5535
aI5605
aI5671
aI6034
aI6116
aI6160
aI6391
aI6419
aI6480
aI6639
aI6741
aI6757
aI6772
aI7044
aI7323
aI7776
aI8053
aI8149
aI8520
aI8611
aI8771
aI8875
aI9818
aI9996
aI10367
aI10702
aI10825
aI11092
aI11108
aI11164
aI11563
aI11662
aI11669
aI11695
aI11794
aI12229
aI12263
aI12676
aI13052
aI13076
aI13111
aI13345
aI13544
asS'AATA'
p361
(lp362
I518
aI836
aI981
aI1778
aI1818
aI2415
aI2789
aI2876
aI3020
aI3293
aI3296
aI3409
aI3739
aI3763
aI3848
aI3905
aI3953
aI3966
aI4908
aI5314
aI5349
aI5775
aI5788
aI6066
aI6304
aI6326
aI6518
aI6540
aI6690
aI6752
aI6837
aI6867
aI7296
aI7380
aI7551
aI7620
aI8496
aI8632
aI8656
aI8791
aI8869
aI8971
aI9013
aI9066
aI9207
aI9227
aI9247
aI9360
aI9515
aI10362
aI10468
aI10555
aI10584
aI10687
aI10822
aI10974
aI11147
aI11317
aI11420
aI11447
aI12073
aI12156
aI12288
aI12740
aI13015
aI13031
aI13208
aI13328
asS'AATG'
p363
(lp364
I325
aI362
aI371
aI491
aI618
aI663
aI685
aI843
aI1257
aI2457
aI2461
aI2690
aI2848
aI2852
aI2945
aI2987
aI3015
aI3107
aI3421
aI3438
aI3854
aI3947
aI4705
aI4748
aI4828
aI5004
aI5086
aI5435
aI5739
aI5950
aI5998
aI6021
aI6291
aI6632
aI6666
aI6674
aI6732
aI7266
aI7555
aI7694
aI7798
aI7878
aI7897
aI7955
aI8006
aI8048
aI8155
aI8458
aI8623
aI8689
aI8707
aI8714
aI8864
aI8907
aI8932
aI8986
aI9019
aI9040
aI9061
aI9127
aI9838
aI9887
aI10498
aI10564
aI10631
aI10731
aI10992
aI11261
aI11393
aI11403
aI11486
aI11844
aI11849
aI11900
aI11915
aI11954
aI12100
aI12149
aI12192
aI12310
aI12697
aI12776
aI13116
aI13331
asS'TCAG'
p365
(lp366
I44
aI122
aI274
aI379
aI656
aI928
aI1104
aI1311
aI1571
aI1763
aI2067
aI2138
aI2425
aI2607
aI2743
aI3041
aI3097
aI3300
aI3351
aI3464
aI3869
aI3878
aI4243
aI4358
aI4773
aI4780
aI4819
aI6048
aI6318
aI6393
aI6570
aI6641
aI6728
aI7036
aI7493
aI7718
aI8510
aI8754
aI8759
aI8950
aI9237
aI9274
aI9315
aI9520
aI9633
aI9868
aI9916
aI9947
aI10110
aI10479
aI10740
aI10786
aI10909
aI10923
aI10944
aI11110
aI11671
aI11727
aI11931
aI12175
aI13281
aI13313
asS'TATT'
p367
(lp368
I38
aI96
aI376
aI526
aI582
aI737
aI1593
aI1654
aI1838
aI2417
aI2546
aI2829
aI3317
aI4010
aI4286
aI4509
aI4848
aI5616
aI6043
aI6151
aI6277
aI6306
aI6725
aI7000
aI7460
aI7722
aI8057
aI8277
aI9015
aI9057
aI9683
aI9892
aI10327
aI10451
aI10541
aI10586
aI10709
aI11123
aI11410
aI12032
aI12075
aI12114
aI12134
aI12671
aI13323
aI13341
asS'CGTC'
p369
(lp370
I120
aI180
aI1123
aI1166
aI1470
aI1513
aI1761
aI1773
aI2299
aI2487
aI3191
aI3608
aI4162
aI4217
aI4453
aI4520
aI4771
aI4963
aI5608
aI5611
aI5732
aI5823
aI5979
aI6528
aI8162
aI8484
aI8750
aI8821
aI9199
aI9426
aI9789
aI9798
aI9859
aI10893
aI12173
aI12683
aI13246
aI13304
aI13311
aI13531
asS'CTTG'
p371
(lp372
I23
aI569
aI640
aI812
aI858
aI1249
aI1563
aI1660
aI1683
aI1972
aI2106
aI2363
aI2634
aI3072
aI3282
aI3391
aI3404
aI3460
aI3478
aI3784
aI4146
aI4410
aI4445
aI4659
aI4950
aI4997
aI5070
aI5107
aI5522
aI5834
aI5982
aI5988
aI7023
aI7710
aI8238
aI8377
aI8420
aI8670
aI9547
aI9642
aI9741
aI10026
aI10193
aI10311
aI10446
aI10677
aI10812
aI11077
aI11440
aI11704
aI12654
aI12871
aI13263
asS'CGTA'
p373
(lp374
I160
aI592
aI1208
aI1278
aI1616
aI2126
aI2183
aI2223
aI2445
aI3266
aI3443
aI3664
aI3835
aI4046
aI4108
aI4169
aI4794
aI5463
aI5484
aI5614
aI5750
aI5808
aI6166
aI6242
aI6438
aI6552
aI7308
aI7645
aI7688
aI8018
aI8101
aI8336
aI8968
aI9594
aI9617
aI9851
aI9912
aI10007
aI11839
aI12686
aI12836
aI13041
aI13108
asS'GTTA'
p375
(lp376
I255
aI1482
aI1504
aI1977
aI2050
aI2237
aI2747
aI3104
aI3136
aI3745
aI3902
aI3950
aI4257
aI4513
aI4547
aI4645
aI5178
aI5417
aI6106
aI6149
aI6501
aI6919
aI7259
aI7368
aI7409
aI7508
aI7518
aI7965
aI8653
aI8854
aI9244
aI9345
aI9488
aI9636
aI10449
aI11013
aI12030
aI12601
aI12920
aI13481
aI13488
aI13519
asS'GTTC'
p377
(lp378
I306
aI1360
aI1862
aI2027
aI2045
aI2382
aI2517
aI2531
aI2572
aI2751
aI3068
aI3141
aI3204
aI3398
aI3636
aI3810
aI3957
aI4356
aI4597
aI5158
aI5232
aI5380
aI5627
aI5729
aI5845
aI5939
aI5976
aI6216
aI6285
aI6313
aI6381
aI6615
aI7087
aI7276
aI7291
aI7609
aI7918
aI8192
aI8260
aI8508
aI8555
aI8757
aI8948
aI9029
aI9071
aI9235
aI9323
aI9404
aI9605
aI9883
aI9922
aI10267
aI10403
aI10634
aI12378
aI12561
aI12608
aI12849
aI13128
aI13184
asS'GTCG'
p379
(lp380
I83
aI848
aI1124
aI1471
aI1546
aI1869
aI2438
aI2555
aI3355
aI3541
aI3833
aI3981
aI4079
aI4163
aI4454
aI4541
aI4865
aI4964
aI5319
aI5367
aI5609
aI5612
aI5781
aI6938
aI6942
aI7856
aI7907
aI8158
aI8163
aI8437
aI9550
aI9761
aI9857
aI10167
aI11005
aI12684
aI13228
aI13247
aI13628
asS'GTCA'
p381
(lp382
I121
aI365
aI564
aI1167
aI1476
aI1514
aI1762
aI1774
aI1806
aI1937
aI2056
aI2803
aI3463
aI3669
aI3861
aI4050
aI4772
aI4779
aI4818
aI4835
aI5223
aI5733
aI6471
aI6670
aI6697
aI6926
aI7035
aI7134
aI7320
aI7675
aI7757
aI7939
aI8485
aI8581
aI8847
aI8910
aI9305
aI9653
aI9745
aI9946
aI10109
aI11247
aI11726
aI11904
aI11930
aI12174
aI12189
aI13028
aI13305
aI13312
aI13319
aI13537
aI13555
asS'GTTG'
p383
(lp384
I247
aI347
aI412
aI572
aI891
aI1237
aI2188
aI2262
aI2306
aI2309
aI2435
aI2449
aI3973
aI4068
aI4668
aI4856
aI5307
aI5360
aI5706
aI5712
aI6087
aI6103
aI6170
aI6994
aI7084
aI7606
aI7812
aI8680
aI8701
aI9349
aI9754
aI9919
aI10236
aI10390
aI10501
aI10668
aI11520
aI11736
aI11787
aI11927
aI12027
aI12268
aI12393
aI12846
aI13069
aI13235
aI13417
aI13496
asS'GTCC'
p385
(lp386
I396
aI507
aI1451
aI1458
aI1583
aI1858
aI1875
aI1921
aI1954
aI2340
aI3192
aI3413
aI3609
aI3627
aI3776
aI3824
aI3939
aI4218
aI4806
aI5824
aI6156
aI6223
aI6343
aI6529
aI7564
aI8380
aI8573
aI9200
aI9427
aI9452
aI9563
aI9799
aI10029
aI10173
aI10263
aI10295
aI10518
aI11377
aI11492
aI11806
aI11918
aI12211
aI12667
aI12718
aI13532
asS'AACC'
p387
(lp388
I423
aI601
aI855
aI1043
aI1071
aI1096
aI2080
aI2475
aI2593
aI2679
aI3342
aI3570
aI3917
aI4697
aI4960
aI5265
aI5519
aI5767
aI6137
aI6431
aI6651
aI6656
aI6747
aI6796
aI6933
aI7122
aI7174
aI7546
aI7668
aI8021
aI8812
aI9287
aI9579
aI9689
aI10129
aI10213
aI10576
aI10969
aI11033
aI11231
aI11457
aI11649
aI11756
aI11894
aI11939
aI11982
aI12201
aI12785
aI12937
asS'AACA'
p389
(lp390
I315
aI714
aI743
aI866
aI956
aI996
aI1558
aI1587
aI1713
aI1768
aI1842
aI1940
aI2314
aI2659
aI2670
aI2699
aI2819
aI2886
aI2915
aI2938
aI3079
aI3227
aI3474
aI3758
aI4331
aI4612
aI4634
aI5210
aI5515
aI5583
aI5664
aI5785
aI6110
aI6494
aI6710
aI6963
aI7200
aI7213
aI7262
aI7364
aI7541
aI7682
aI7805
aI7914
aI8282
aI8597
aI8795
aI8900
aI8938
aI8974
aI9085
aI9109
aI9170
aI9215
aI9627
aI9780
aI10120
aI10442
aI10525
aI10607
aI10626
aI10693
aI10727
aI10887
aI10964
aI11018
aI11041
aI11099
aI11137
aI11541
aI11578
aI11615
aI11742
aI11907
aI12038
aI12591
aI13291
aI13453
aI13580
aI13659
asS'AACG'
p391
(lp392
I723
aI1121
aI1231
aI1501
aI2121
aI2297
aI2409
aI3623
aI3753
aI3922
aI4073
aI4167
aI4484
aI4792
aI5034
aI5206
aI5245
aI5338
aI5447
aI5637
aI6213
aI6238
aI6785
aI6916
aI7306
aI7438
aI8078
aI8206
aI8767
aI10208
aI10806
aI11529
aI12061
aI12681
aI12834
aI12896
aI13152
aI13653
asS'ACCC'
p393
(lp394
I9
aI127
aI227
aI287
aI1072
aI1219
aI1241
aI1812
aI1823
aI2033
aI2038
aI2081
aI2217
aI2250
aI2255
aI2582
aI2594
aI2680
aI2730
aI3698
aI3918
aI4186
aI4407
aI4466
aI4591
aI4911
aI5922
aI6138
aI6748
aI7008
aI7393
aI7585
aI8073
aI8245
aI8813
aI9155
aI9466
aI9491
aI9580
aI9824
aI9964
aI10123
aI10410
aI10696
aI10938
aI11048
aI11150
aI11327
aI11650
aI11689
aI11940
aI12126
aI12382
aI12468
aI12624
aI12938
aI13197
aI13466
aI13514
asS'GTCT'
p395
(lp396
I181
aI405
aI428
aI719
aI1015
aI1101
aI1212
aI1634
aI1891
aI2300
aI2354
aI2361
aI2488
aI2492
aI3166
aI3487
aI4521
aI4929
aI5240
aI5257
aI5438
aI5879
aI5980
aI6884
aI7840
aI7869
aI8210
aI8236
aI8628
aI8744
aI8751
aI8822
aI9163
aI9176
aI9545
aI9575
aI9790
aI9860
aI9904
aI10074
aI10514
aI10743
aI10763
aI10894
aI11199
aI11211
aI11309
aI11591
aI12131
aI13145
asS'GGGC'
p397
(lp398
I171
aI262
aI494
aI597
aI1033
aI1156
aI1380
aI1627
aI1735
aI2004
aI2284
aI2344
aI2922
aI3364
aI3371
aI3614
aI3648
aI3962
aI3984
aI4236
aI4967
aI5123
aI5341
aI5460
aI5476
aI5758
aI5805
aI6075
aI6445
aI6969
aI7637
aI8098
aI8417
aI8524
aI8683
aI9048
aI9115
aI9500
aI9697
aI10809
aI10912
aI11372
aI11537
aI11595
aI11631
aI12255
aI12276
aI12441
aI12584
aI12874
aI12890
aI13156
aI13360
aI13606
asS'GTTT'
p399
(lp400
I57
aI824
aI2154
aI2160
aI2610
aI2756
aI2826
aI3115
aI3212
aI3329
aI3383
aI3548
aI3928
aI3976
aI4151
aI4230
aI4496
aI4506
aI5095
aI5219
aI7425
aI7743
aI7769
aI7815
aI8012
aI8218
aI8739
aI8989
aI9148
aI9319
aI9377
aI9412
aI10095
aI10354
aI10375
aI10647
aI10718
aI10783
aI11190
aI11772
aI11969
aI12050
aI12167
aI12906
aI13367
asS'GGGA'
p401
(lp402
I144
aI682
aI1367
aI1413
aI1611
aI1691
aI1904
aI2390
aI2506
aI2598
aI2977
aI3334
aI3717
aI3914
aI4588
aI4638
aI4743
aI4905
aI5077
aI5173
aI5905
aI6209
aI6251
aI6399
aI6491
aI6644
aI7339
aI7592
aI7655
aI7901
aI8083
aI8463
aI8500
aI8928
aI9297
aI9612
aI9737
aI10604
aI10755
aI11026
aI11305
aI11869
aI12092
aI12484
aI12660
aI12951
aI12992
aI13081
aI13276
asS'CTTT'
p403
(lp404
I510
aI653
aI761
aI817
aI924
aI942
aI1086
aI1315
aI1443
aI1489
aI1568
aI2116
aI3537
aI3639
aI3653
aI4309
aI4315
aI4860
aI4937
aI5064
aI5375
aI5531
aI6005
aI6358
aI6422
aI6907
aI6977
aI7243
aI7279
aI7948
aI8111
aI8256
aI8537
aI8585
aI8803
aI8833
aI9461
aI9657
aI9706
aI9846
aI9906
aI10046
aI10706
aI11176
aI11311
aI11473
aI11992
aI12248
aI12351
aI12863
aI13159
aI13447
aI13504
asS'ACCT'
p405
(lp406
I424
aI856
aI869
aI1148
aI1247
aI1281
aI1561
aI1668
aI1879
aI2476
aI3176
aI3182
aI3234
aI3269
aI3343
aI3561
aI4571
aI4698
aI4738
aI5253
aI5520
aI6347
aI6432
aI6563
aI6626
aI6797
aI6857
aI6934
aI6989
aI7055
aI7150
aI7175
aI7229
aI7472
aI7734
aI7836
aI7971
aI8503
aI8913
aI9341
aI9702
aI10040
aI10079
aI10145
aI10149
aI10200
aI10217
aI10309
aI10473
aI10613
aI10970
aI11034
aI11458
aI11656
aI11757
aI12458
aI12522
aI12869
aI12901
aI13540
asS'AACT'
p407
(lp408
I258
aI482
aI567
aI623
aI986
aI1113
aI1129
aI1138
aI1308
aI1681
aI2087
aI2114
aI2142
aI2240
aI2279
aI2396
aI2542
aI2762
aI3030
aI3132
aI3258
aI3280
aI3578
aI4443
aI4885
aI5062
aI5226
aI5373
aI5428
aI5574
aI5643
aI6003
aI6053
aI6459
aI6647
aI6826
aI7027
aI7156
aI7357
aI7433
aI7708
aI8169
aI8475
aI8567
aI9098
aI9190
aI9280
aI9529
aI10852
aI11000
aI11084
aI11127
aI11323
aI11407
aI11438
aI11618
aI11881
aI11996
aI12304
aI13460
asS'GAGT'
p409
(lp410
I35
aI392
aI410
aI631
aI947
aI1066
aI1369
aI1791
aI3164
aI3310
aI3314
aI3417
aI3772
aI3806
aI3971
aI4084
aI4563
aI5058
aI5091
aI5249
aI5305
aI5779
aI5944
aI6379
aI6401
aI6809
aI7116
aI7196
aI7451
aI7562
aI7663
aI7905
aI8116
aI8234
aI8467
aI8571
aI8626
aI8884
aI9450
aI10165
aI10171
aI10510
aI10666
aI10767
aI10926
aI11307
aI11589
aI11643
aI11724
aI11804
aI12048
aI12121
aI12474
aI12559
aI12844
aI13266
aI13499
asS'GGTA'
p411
(lp412
I6
aI94
aI131
aI300
aI635
aI796
aI1286
aI3240
aI3285
aI3513
aI3792
aI3840
aI3896
aI4033
aI5052
aI5393
aI5640
aI5661
aI6187
aI6296
aI6946
aI6998
aI7469
aI7476
aI8063
aI8267
aI9103
aI10084
aI10197
aI10504
aI10573
aI11282
aI12104
aI12317
aI13242
aI13508
aI13634
asS'GGTG'
p413
(lp414
I79
aI675
aI802
aI1152
aI1403
aI1509
aI1981
aI2130
aI2205
aI3161
aI3584
aI3598
aI4386
aI4683
aI4710
aI4923
aI4975
aI5120
aI5143
aI5295
aI5507
aI5726
aI5817
aI6717
aI7167
aI7926
aI8095
aI8388
aI8391
aI8728
aI9355
aI9950
aI9987
aI10259
aI10335
aI10858
aI10874
aI11182
aI11297
aI11367
aI11924
aI12330
aI12341
aI12375
aI12464
aI12479
aI13059
aI13173
asS'AGCA'
p415
(lp416
I231
aI547
aI1224
aI1463
aI1528
aI1553
aI1709
aI1943
aI2766
aI2811
aI2822
aI2882
aI3024
aI3092
aI3302
aI3518
aI3678
aI4005
aI4702
aI5196
aI5444
aI5634
aI6125
aI6602
aI6661
aI6804
aI6816
aI6854
aI7092
aI7143
aI7455
aI7521
aI7574
aI7787
aI7988
aI8285
aI8426
aI8639
aI8956
aI9010
aI9093
aI9418
aI9445
aI9774
aI10157
aI10177
aI10286
aI10495
aI10835
aI10840
aI10863
aI10866
aI10946
aI11021
aI11104
aI11118
aI11268
aI11504
aI11575
aI11865
aI11988
aI12095
aI12160
aI12221
aI12494
aI12639
aI12944
aI13315
aI13439
aI13583
asS'GGCG'
p417
(lp418
I86
aI861
aI1290
aI1381
aI1431
aI1628
aI1759
aI2005
aI2952
aI3365
aI3606
aI3713
aI3857
aI3989
aI4029
aI4237
aI4763
aI4831
aI5342
aI5363
aI5461
aI5806
aI5885
aI5929
aI6970
aI8099
aI8430
aI8525
aI10245
aI11373
aI12442
aI12805
aI12816
aI12824
aI12913
aI12932
aI12985
aI13374
aI13595
aI13631
asS'AGCC'
p419
(lp420
I105
aI539
aI648
aI658
aI770
aI885
aI1186
aI1573
aI1720
aI2011
aI2062
aI2093
aI2268
aI2324
aI2333
aI2775
aI2906
aI3430
aI3452
aI3661
aI3687
aI3796
aI4000
aI4016
aI4174
aI4424
aI4730
aI5490
aI5554
aI5793
aI6450
aI6465
aI6508
aI7050
aI7187
aI7204
aI7329
aI8310
aI8696
aI8965
aI9000
aI9329
aI10230
aI10249
aI10273
aI10750
aI10917
aI11029
aI11158
aI11423
aI11432
aI11673
aI11717
aI11875
aI12400
aI12549
aI12580
aI12642
aI12745
aI12924
aI12967
aI13294
aI13590
asS'TTGT'
p421
(lp422
I570
aI819
aI919
aI1250
aI1539
aI1973
aI2307
aI2436
aI2515
aI2570
aI2635
aI3405
aI3461
aI3539
aI3974
aI3979
aI4069
aI4147
aI4182
aI4511
aI4660
aI5071
aI5221
aI5415
aI5835
aI5983
aI5989
aI6104
aI6499
aI7061
aI7085
aI7318
aI7374
aI7607
aI7813
aI8258
aI8378
aI8742
aI8852
aI9321
aI9548
aI9651
aI9666
aI9920
aI10027
aI10312
aI10447
aI11441
aI11705
aI11928
aI12028
aI12052
aI12394
aI12766
aI12847
aI13449
aI13494
asS'AGCG'
p423
(lp424
I46
aI111
aI1164
aI1787
aI1800
aI1967
aI1995
aI2151
aI2432
aI2466
aI2712
aI2963
aI3503
aI3769
aI3803
aI4057
aI4299
aI4518
aI4782
aI5456
aI6526
aI6550
aI7236
aI7686
aI7750
aI7809
aI8130
aI8334
aI9197
aI9424
aI9457
aI9870
aI10642
aI10891
aI11544
aI12217
aI13379
aI13567
aI13649
asS'GAGG'
p425
(lp426
I142
aI278
aI697
aI800
aI935
aI1091
aI1144
aI1411
aI1693
aI1906
aI2074
aI2725
aI3209
aI3704
aI4139
aI4227
aI4671
aI5140
aI5202
aI5261
aI5499
aI5505
aI5659
aI5888
aI6294
aI6354
aI6443
aI6585
aI6878
aI7581
aI7635
aI7698
aI7794
aI7866
aI8081
aI8133
aI8265
aI8323
aI8340
aI8405
aI8762
aI8896
aI9113
aI9497
aI10256
aI10292
aI10372
aI10417
aI10531
aI10621
aI10987
aI11080
aI11239
aI11338
aI11571
aI12178
aI12453
aI12706
aI12830
aI12930
aI12994
aI13066
asS'CCGA'
p427
(lp428
I18
aI660
aI1074
aI1221
aI1783
aI1883
aI2013
aI2035
aI2095
aI2111
aI2245
aI2252
aI2708
aI2908
aI3207
aI3415
aI3572
aI3749
aI3993
aI4002
aI4102
aI4176
aI4335
aI4578
aI4628
aI4694
aI5018
aI5276
aI5330
aI6456
aI6960
aI8444
aI9661
aI10407
aI10508
aI11265
aI11481
aI11560
aI11896
aI12576
aI12747
aI12941
aI12970
aI13168
aI13256
asS'GAGC'
p429
(lp430
I538
aI578
aI1163
aI1185
aI1223
aI1415
aI2010
aI2061
aI2150
aI2718
aI2774
aI2905
aI3451
aI3802
aI4004
aI5163
aI5648
aI5792
aI6507
aI6525
aI7186
aI7235
aI7251
aI7883
aI8085
aI8446
aI8955
aI9328
aI9439
aI10055
aI10248
aI10426
aI10834
aI11028
aI11267
aI11341
aI11574
aI11716
aI11864
aI11887
aI12094
aI12220
aI12513
aI12638
aI12744
aI12755
aI12943
aI13648
asS'TTGA'
p431
(lp432
I24
aI40
aI198
aI348
aI413
aI573
aI584
aI641
aI905
aI1238
aI1564
aI2167
aI2171
aI2189
aI2499
aI2696
aI3479
aI3722
aI4669
aI4998
aI5308
aI5707
aI5860
aI6409
aI7024
aI7078
aI7579
aI7711
aI7817
aI8279
aI8588
aI8702
aI9124
aI9350
aI9755
aI10549
aI10678
aI10711
aI11078
aI11192
aI11521
aI11607
aI12169
aI12655
aI12880
aI13236
aI13264
aI13325
aI13457
aI13497
aI13646
asS'TTGC'
p433
(lp434
I59
aI99
aI248
aI454
aI463
aI813
aI969
aI1657
aI1684
aI2107
aI2156
aI2310
aI2548
aI3088
aI3320
aI3392
aI3641
aI4196
aI4411
aI4842
aI4857
aI4939
aI4951
aI5108
aI5301
aI5523
aI5618
aI6088
aI6171
aI6979
aI7128
aI7428
aI7725
aI7762
aI8015
aI8239
aI8421
aI8671
aI9133
aI9151
aI9380
aI9643
aI9848
aI10237
aI10391
aI11525
aI11625
aI11788
aI12088
aI12269
aI12425
aI13070
aI13418
aI13424
asS'CTGG'
p435
(lp436
I14
aI223
aI260
aI297
aI407
aI785
aI1150
aI1429
aI1677
aI1732
aI2520
aI2892
aI2925
aI3260
aI3987
aI4573
aI4680
aI4920
aI5117
aI5391
aI5883
aI5927
aI6336
aI7183
aI7273
aI7474
aI7512
aI7921
aI8138
aI8552
aI8774
aI9182
aI9568
aI9610
aI9862
aI9874
aI9901
aI10233
aI10380
aI10871
aI11002
aI11180
aI11303
aI11583
aI11593
aI11658
aI12306
aI12410
aI12516
aI13057
aI13372
aI13603
asS'AGCT'
p437
(lp438
I207
aI579
aI605
aI638
aI930
aI940
aI959
aI1313
aI1395
aI1416
aI1441
aI1946
aI2176
aI2719
aI3048
aI3522
aI3532
aI3871
aI4021
aI4130
aI4995
aI5102
aI5164
aI5181
aI5649
aI6193
aI6269
aI6791
aI7252
aI7385
aI7884
aI8086
aI8447
aI8535
aI9004
aI9333
aI9440
aI9620
aI9831
aI9928
aI10056
aI10112
aI10427
aI10558
aI10979
aI11044
aI11342
aI11466
aI11581
aI11729
aI11810
aI11888
aI12001
aI12111
aI12322
aI12349
aI12514
aI12756
aI13191
aI13221
asS'TTGG'
p439
(lp440
I311
aI859
aI892
aI944
aI1088
aI1661
aI2263
aI2364
aI2450
aI2504
aI2612
aI3073
aI3283
aI3511
aI3785
aI4311
aI4446
aI5361
aI5713
aI5724
aI6153
aI6279
aI6609
aI6995
aI7467
aI7653
aI8681
aI9478
aI9742
aI10194
aI10329
aI10502
aI10588
aI10669
aI10715
aI10760
aI10780
aI10813
aI11737
aI12390
aI12439
aI12872
aI13506
asS'GGTC'
p441
(lp442
I82
aI847
aI1475
aI1545
aI1582
aI1633
aI1805
aI1857
aI2055
aI2353
aI2360
aI2802
aI3354
aI3486
aI3626
aI3668
aI3823
aI3860
aI3938
aI4778
aI4817
aI4834
aI4928
aI5239
aI5366
aI6155
aI6669
aI6696
aI6941
aI7868
aI7938
aI8209
aI8436
aI9162
aI9544
aI9562
aI9744
aI9903
aI10262
aI10294
aI10762
aI11004
aI11210
aI11246
aI11376
aI11903
aI12188
aI12210
aI12666
aI13627
asS'CCCA'
p443
(lp444
I62
aI102
aI228
aI398
aI806
aI887
aI1460
aI1601
aI1622
aI1673
aI1813
aI1825
aI1923
aI2083
aI2218
aI2257
aI2289
aI2681
aI2731
aI2960
aI3778
aI3826
aI3919
aI4018
aI4189
aI4468
aI4530
aI4592
aI4894
aI5538
aI5630
aI5796
aI5826
aI6091
aI6139
aI6232
aI6749
aI7009
aI7052
aI7247
aI7394
aI7587
aI8070
aI8182
aI8480
aI8493
aI8546
aI8814
aI8839
aI9467
aI9492
aI10031
aI10060
aI10124
aI10297
aI10411
aI10697
aI10939
aI10957
aI11328
aI11363
aI11379
aI11533
aI11720
aI11800
aI11942
aI11973
aI12127
aI12232
aI12294
aI12383
aI12544
aI12644
aI12812
aI13188
aI13198
aI13296
aI13467
aI13618
asS'ATGC'
p445
(lp446
I372
aI467
aI664
aI686
aI951
aI1258
aI1619
aI1650
aI2462
aI2796
aI2988
aI3037
aI3908
aI4267
aI4725
aI5005
aI5045
aI5740
aI5957
aI6022
aI7018
aI7267
aI7714
aI7879
aI7934
aI8007
aI8179
aI8459
aI8708
aI9128
aI9308
aI9670
aI9888
aI10023
aI10960
aI11250
aI11262
aI11290
aI11354
aI11360
aI11548
aI11845
aI11955
aI12043
aI12150
aI12163
aI12291
aI12406
aI12433
aI12594
aI12691
aI12698
aI13132
aI13270
aI13308
aI13335
asS'ATGA'
p447
(lp448
I191
aI619
aI1008
aI1204
aI1263
aI1534
aI1809
aI2098
aI2458
aI2601
aI2691
aI2814
aI2849
aI2946
aI3147
aI3156
aI3422
aI3439
aI3469
aI3695
aI4303
aI4477
aI4561
aI4749
aI4825
aI5657
aI5951
aI6094
aI6292
aI6352
aI6633
aI6675
aI6700
aI6733
aI6949
aI7952
aI7956
aI7968
aI8125
aI8624
aI8690
aI8933
aI9020
aI9041
aI9062
aI9080
aI9224
aI9338
aI9389
aI10225
aI10306
aI10348
aI10358
aI10421
aI10565
aI10732
aI10790
aI10793
aI11404
aI11487
aI11686
aI12570
aI12750
aI12753
aI13117
aI13205
aI13332
aI13400
asS'ATGG'
p449
(lp450
I326
aI492
aI680
aI844
aI1031
aI1580
aI2002
aI2053
aI2372
aI2920
aI3016
aI3101
aI3159
aI3482
aI3855
aI4435
aI4492
aI4604
aI4755
aI4829
aI5075
aI5999
aI6489
aI6667
aI6822
aI6966
aI7161
aI7486
aI7603
aI7660
aI7695
aI7863
aI7898
aI8030
aI8066
aI8798
aI8926
aI9295
aI9353
aI9695
aI10843
aI10951
aI10993
aI11024
aI11394
aI11850
aI11901
aI11922
aI12101
aI12193
aI12252
aI12274
aI12311
aI12315
aI12658
aI13232
aI13239
aI13358
asS'TGCT'
p451
(lp452
I151
aI249
aI337
aI373
aI468
aI612
aI732
aI922
aI1259
aI1427
aI1651
aI1658
aI1685
aI1835
aI1917
aI1949
aI2632
aI2989
aI3038
aI4122
aI4144
aI4412
aI4663
aI4858
aI5046
aI5105
aI5562
aI5986
aI5992
aI6023
aI6776
aI7268
aI7715
aI7763
aI7928
aI8346
aI8879
aI9134
aI9381
aI9408
aI9889
aI10024
aI10337
aI10435
aI10638
aI10906
aI11299
aI11355
aI11816
aI11834
aI11956
aI12044
aI12151
aI12270
aI12332
aI12692
aI12861
aI13133
aI13215
aI13502
asS'CCCT'
p453
(lp454
I10
aI266
aI288
aI1242
aI1299
aI1340
aI1421
aI1597
aI1723
aI1730
aI1898
aI2039
aI2064
aI2270
aI2584
aI2997
aI3689
aI3932
aI4220
aI4392
aI4408
aI4912
aI5326
aI5559
aI5761
aI5925
aI5960
aI6532
aI6975
aI8074
aI8229
aI9156
aI9566
aI9581
aI9680
aI9965
aI10251
aI10432
aI11049
aI11075
aI11151
aI11253
aI11387
aI11434
aI11453
aI11552
aI11651
aI11676
aI11690
aI12279
aI12364
aI12469
aI13137
asS'GCGC'
p455
(lp456
I47
aI49
aI51
aI53
aI112
aI270
aI688
aI1291
aI1549
aI1996
aI2196
aI2211
aI2213
aI2964
aI3494
aI3504
aI3990
aI4058
aI4379
aI4783
aI4785
aI5343
aI5969
aI7020
aI7179
aI7751
aI8249
aI8355
aI8431
aI9458
aI9728
aI9871
aI12986
aI12988
aI13380
aI13596
asS'GCAA'
p457
(lp458
I456
aI548
aI599
aI700
aI953
aI971
aI1293
aI1529
aI1710
aI2276
aI2312
aI2329
aI2540
aI2883
aI3519
aI3964
aI4441
aI4703
aI5445
aI5635
aI6447
aI6817
aI7430
aI7536
aI7803
aI7875
aI8765
aI9011
aI9419
aI10178
aI10496
aI10591
aI10836
aI10962
aI11105
aI11445
aI11527
aI11539
aI11576
aI11633
aI11740
aI11847
aI12096
aI12222
aI12435
aI12586
aI12709
aI13382
aI13584
asS'GCGA'
p459
(lp460
I862
aI3198
aI3366
aI3770
aI3804
aI4060
aI4082
aI4238
aI4300
aI4402
aI4416
aI4722
aI4764
aI4844
aI5042
aI5134
aI5192
aI5303
aI5886
aI5930
aI6082
aI7237
aI7881
aI7979
aI8025
aI8120
aI8131
aI8412
aI9645
aI10246
aI10278
aI10303
aI11088
aI11545
aI12218
aI12817
aI13375
aI13474
aI13568
aI13650
asS'TACT'
p461
(lp462
I1059
aI2421
aI2665
aI2791
aI2832
aI3058
aI3218
aI3389
aI4110
aI4119
aI4307
aI4948
aI4984
aI5184
aI5188
aI5465
aI6189
aI6334
aI6361
aI6503
aI6686
aI7064
aI7241
aI7283
aI7478
aI7510
aI8269
aI8305
aI8361
aI8784
aI9036
aI9517
aI10000
aI10485
aI11449
aI11822
aI11825
aI11831
aI12008
aI12020
aI12555
aI12652
aI12730
aI12792
aI12838
aI12853
aI13094
aI13389
aI13445
asS'CCCC'
p463
(lp464
I265
aI1322
aI1722
aI1824
aI2082
aI2256
aI2583
aI2996
aI3194
aI3699
aI4187
aI4188
aI4467
aI4529
aI5556
aI5557
aI5558
aI5795
aI5923
aI5924
aI6231
aI6531
aI7586
aI8492
aI9565
aI11551
aI11675
aI11719
aI11941
aI12625
aI12626
aI12939
aI13187
aI13515
asS'TGCC'
p465
(lp466
I1
aI60
aI100
aI665
aI804
aI814
aI872
aI1048
aI1320
aI1419
aI1620
aI1671
aI2108
aI2207
aI2620
aI2797
aI3033
aI3393
aI3586
aI3594
aI3642
aI3909
aI4100
aI4197
aI4202
aI4390
aI4524
aI4726
aI4977
aI5006
aI5109
aI5145
aI5431
aI5524
aI5528
aI5619
aI5747
aI5838
aI5958
aI6089
aI6196
aI6957
aI6980
aI7129
aI8038
aI8180
aI8393
aI8422
aI8442
aI8478
aI8544
aI8672
aI8709
aI9671
aI9898
aI10392
aI10438
aI10683
aI11073
aI11251
aI11263
aI11361
aI11549
aI11626
aI11798
aI12292
aI12407
aI12426
aI12507
aI12595
aI12633
aI13071
aI13336
aI13425
asS'CACG'
p467
(lp468
I118
aI750
aI911
aI1624
aI2058
aI3498
aI3645
aI3671
aI3780
aI4106
aI4160
aI4270
aI4399
aI4642
aI4788
aI4954
aI5112
aI5198
aI5473
aI5545
aI5590
aI6226
aI6536
aI7136
aI8409
aI8482
aI9784
aI9796
aI11601
aI12798
aI12962
aI13098
aI13273
aI13529
asS'TGCA'
p469
(lp470
I90
aI455
aI464
aI952
aI970
aI2311
aI2319
aI2328
aI2429
aI2463
aI2549
aI3089
aI3346
aI3692
aI4268
aI4342
aI4566
aI4712
aI4879
aI4952
aI5297
aI6015
aI7429
aI7571
aI7726
aI7802
aI8240
aI8328
aI8664
aI9129
aI9152
aI9309
aI10238
aI10660
aI10961
aI11202
aI11291
aI11444
aI11461
aI11469
aI11501
aI11526
aI11762
aI11789
aI11846
aI12397
aI12434
aI12699
aI13140
aI13252
aI13271
aI13419
asS'CACA'
p471
(lp472
I116
aI433
aI446
aI501
aI706
aI840
aI1197
aI1391
aI1715
aI1991
aI2291
aI2785
aI3153
aI3618
aI3815
aI4326
aI4554
aI4873
aI4881
aI5543
aI5551
aI5683
aI6017
aI6511
aI6712
aI6843
aI7011
aI7140
aI7631
aI7671
aI7983
aI7990
aI8383
aI8958
aI9473
aI9624
aI9629
aI9782
aI10413
aI10527
aI10655
aI11096
aI11132
aI11293
aI11426
aI11599
aI11985
aI12296
aI12371
aI12546
aI12724
aI13288
aI13527
aI13609
asS'TGCG'
p473
(lp474
I269
aI687
aI1372
aI1511
aI1645
aI2157
aI2229
aI2350
aI2357
aI3321
aI4383
aI4415
aI4769
aI4843
aI4925
aI4940
aI5191
aI5229
aI5302
aI5468
aI5741
aI5814
aI5821
aI5902
aI5968
aI6081
aI6172
aI7019
aI7178
aI7880
aI7935
aI7978
aI8008
aI8016
aI8119
aI8460
aI9159
aI9644
aI9727
aI9849
aI9989
aI11087
aI11369
aI11837
aI12089
aI12164
aI12769
aI13309
aI13473
asS'ATGT'
p475
(lp476
I363
aI514
aI717
aI1449
aI1873
aI2186
aI2226
aI2260
aI2304
aI2655
aI2769
aI2779
aI2853
aI2941
aI3066
aI3108
aI3446
aI3948
aI4077
aI4595
aI4706
aI4804
aI4876
aI5080
aI5087
aI5176
aI5317
aI5436
aI6274
aI6311
aI6365
aI6469
aI6924
aI7407
aI7556
aI7799
aI8049
aI8156
aI8642
aI8715
aI8865
aI8908
aI8987
aI9765
aI9839
aI9944
aI10072
aI10093
aI10401
aI10499
aI10632
aI11197
aI11916
aI12025
aI12184
aI12447
aI12777
aI12883
aI13143
aI13365
asS'TACA'
p477
(lp478
I133
aI357
aI543
aI767
aI838
aI1037
aI1062
aI1706
aI2472
aI2495
aI3287
aI3515
aI3658
aI4264
aI4463
aI4871
aI5441
aI5681
aI5701
aI5764
aI6122
aI6244
aI6520
aI6566
aI6986
aI7072
aI7119
aI7153
aI7217
aI7629
aI7843
aI8103
aI8367
aI8645
aI8807
aI9105
aI9249
aI9540
aI9638
aI9686
aI9842
aI10345
aI10689
aI11287
aI11964
aI12319
aI12567
aI12613
aI12688
aI12866
aI13218
aI13559
asS'TACC'
p479
(lp480
I8
aI126
aI162
aI529
aI747
aI1218
aI1280
aI1667
aI1851
aI2249
aI2527
aI3268
aI3272
aI3553
aI3747
aI4185
aI4570
aI4910
aI5252
aI5623
aI5921
aI6625
aI6890
aI7298
aI7471
aI7730
aI7835
aI8351
aI8825
aI9490
aI10039
aI10078
aI10148
aI10199
aI10472
aI10506
aI10937
aI11047
aI11149
aI11214
aI11326
aI11479
aI11655
aI11746
aI11775
aI12501
aI12525
aI12623
aI12795
aI13036
aI13166
aI13196
aI13510
aI13641
asS'CTTA'
p481
(lp482
I251
aI388
aI1522
aI1687
aI1865
aI1900
aI2544
aI2896
aI3050
aI3675
aI4432
aI4537
aI4980
aI5186
aI6202
aI6332
aI6461
aI7886
aI8307
aI8365
aI8449
aI8559
aI9136
aI9282
aI9292
aI9442
aI10076
aI10202
aI10560
aI10615
aI11620
aI11653
aI11951
aI12611
aI13009
aI13339
asS'TACG'
p483
(lp484
I553
aI1267
aI2181
aI3189
aI3741
aI4044
aI4451
aI4503
aI5039
aI5403
aI5419
aI5810
aI7643
aI7974
aI7999
aI8318
aI9559
aI9596
aI9750
aI9954
aI10104
aI12979
aI13244
aI13521
asS'CATA'
p485
(lp486
I108
aI448
aI524
aI692
aI745
aI1516
aI1665
aI1702
aI1999
aI2321
aI2534
aI2912
aI3216
aI3760
aI4042
aI4290
aI4568
aI4675
aI4733
aI4837
aI5585
aI5841
aI6177
aI7207
aI7215
aI7728
aI7995
aI8152
aI8273
aI8330
aI8816
aI9263
aI10126
aI10343
aI10492
aI10966
aI11058
aI11278
aI11463
aI11512
aI11744
aI11820
aI12621
aI12650
aI12726
aI13321
aI13557
asS'CATC'
p487
(lp488
I75
aI400
aI498
aI781
aI998
aI1021
aI1199
aI1226
aI1344
aI1363
aI1478
aI1844
aI1895
aI1957
aI2023
aI2672
aI2675
aI2805
aI3248
aI3289
aI3304
aI3709
aI4214
aI4322
aI4714
aI4896
aI4970
aI5013
aI5235
aI5540
aI5864
aI5892
aI5934
aI6568
aI6579
aI7992
aI8105
aI8184
aI8195
aI8530
aI8841
aI9311
aI9631
aI9939
aI9981
aI10288
aI10598
aI10609
aI10738
aI10868
aI11055
aI11330
aI11398
aI11749
aI12284
aI12355
aI12701
aI12721
asS'CATG'
p489
(lp490
I466
aI716
aI1448
aI1579
aI1808
aI2259
aI2371
aI2768
aI2778
aI2795
aI2813
aI2940
aI3036
aI3155
aI3694
aI4266
aI4491
aI4594
aI4803
aI4824
aI4875
aI5956
aI6093
aI6310
aI6351
aI6468
aI6699
aI6965
aI7017
aI7160
aI7406
aI7602
aI7659
aI7862
aI7933
aI8641
aI8797
aI9307
aI9694
aI10071
aI10347
aI10400
aI10842
aI10959
aI11023
aI11249
aI11289
aI11921
aI12024
aI12162
aI12432
aI12569
aI12593
aI12690
aI13131
aI13142
aI13307
aI13364
aI13399
asS'TCCT'
p491
(lp492
I221
aI508
aI764
aI783
aI991
aI1081
aI1346
aI1959
aI3070
aI3386
aI3564
aI4339
aI4535
aI4657
aI4807
aI5167
aI5673
aI5894
aI6133
aI6162
aI6581
aI6743
aI6898
aI6905
aI7271
aI7325
aI7890
aI8557
aI9180
aI9201
aI9453
aI9924
aI10704
aI10723
aI11413
aI11702
aI12668
aI13007
aI13533
asS'CGCT'
p493
(lp494
I211
aI271
aI755
aI1233
aI1325
aI1454
aI3252
aI3402
aI3505
aI3673
aI3782
aI4380
aI4543
aI4653
aI5036
aI5344
aI5872
aI6200
aI6954
aI7021
aI7858
aI8214
aI8300
aI8439
aI9290
aI9459
aI9872
aI10191
aI11007
aI13055
aI13249
asS'CATT'
p495
(lp496
I174
aI309
aI367
aI708
aI1169
aI1603
aI1925
aI2164
aI2497
aI3094
aI3275
aI3828
aI4007
aI4052
aI4114
aI4295
aI4532
aI4600
aI5009
aI5268
aI5299
aI5413
aI5722
aI5735
aI5916
aI6112
aI6127
aI6496
aI6902
aI6928
aI7013
aI7465
aI7482
aI7490
aI7576
aI7651
aI7759
aI7941
aI8143
aI8175
aI8781
aI8849
aI8902
aI8940
aI8976
aI9087
aI9131
aI9393
aI9475
aI9747
aI10240
aI10547
aI10932
aI11270
aI11346
aI11506
aI11764
aI12358
aI12615
aI12877
aI12946
aI13421
aI13428
aI13455
aI13576
aI13620
aI13644
asS'CGCA'
p497
(lp498
I828
aI1292
aI1389
aI1550
aI1997
aI2102
aI2214
aI2275
aI2378
aI2808
aI2965
aI3500
aI3630
aI3813
aI4397
aI4440
aI4786
aI5720
aI7138
aI8356
aI9598
aI9692
aI9979
aI11510
aI12619
aI12898
aI12964
aI13180
aI13381
asS'CTTC'
p499
(lp500
I219
aI283
aI341
aI476
aI627
aI1083
aI1301
aI1337
aI1348
aI1399
aI2144
aI2423
aI3534
aI3732
aI3888
aI3934
aI4394
aI4459
aI4655
aI4717
aI5048
aI5909
aI5962
aI6099
aI6316
aI6576
aI6886
aI7332
aI7736
aI9178
aI9967
aI10002
aI10035
aI10429
aI10475
aI10569
aI10652
aI10854
aI11036
aI11051
aI11069
aI11129
aI11255
aI11554
aI11678
aI11752
aI11812
aI11890
aI12281
aI12334
aI12855
aI13000
aI13615
asS'CGCG'
p501
(lp502
I48
aI50
aI52
aI54
aI178
aI344
aI1276
aI1548
aI2195
aI2210
aI2212
aI3197
aI3493
aI4059
aI4081
aI4378
aI4401
aI4721
aI4784
aI5041
aI5133
aI5357
aI5970
aI6240
aI8024
aI8160
aI8248
aI8250
aI8354
aI8411
aI8432
aI9729
aI10277
aI10302
aI12598
aI12987
aI12989
aI13039
aI13302
aI13432
aI13597
asS'TCCG'
p503
(lp504
I29
aI1452
aI1782
aI1859
aI1882
aI2146
aI2273
aI2341
aI2707
aI3206
aI3237
aI3250
aI3400
aI3414
aI3525
aI3628
aI4651
aI4719
aI5131
aI5271
aI5329
aI5355
aI5964
aI7003
aI7565
aI7766
aI8060
aI8225
aI8298
aI9483
aI9660
aI9983
aI10098
aI10264
aI12575
aI13078
aI13485
asS'CGCC'
p505
(lp506
I113
aI689
aI1178
aI1351
aI2123
aI2197
aI2411
aI3245
aI3495
aI3527
aI3991
aI4252
aI4527
aI4626
aI4800
aI4852
aI5016
aI5153
aI5321
aI5421
aI5690
aI5869
aI7180
aI7752
aI8227
aI8490
aI9827
aI10397
aI11531
aI11557
aI12542
aI12629
aI13003
aI13260
asS'TCCC'
p507
(lp508
I397
aI1298
aI1339
aI1459
aI1596
aI1600
aI1897
aI1922
aI2243
aI2288
aI2959
aI2995
aI3193
aI3777
aI3825
aI3931
aI4219
aI4893
aI5325
aI5537
aI5629
aI5825
aI5866
aI6454
aI6530
aI7246
aI8838
aI9564
aI9679
aI10030
aI10059
aI10296
aI10405
aI10431
aI10956
aI11378
aI11386
aI11452
aI11972
aI12231
aI12363
aI13136
aI13186
aI13617
asS'CGTG'
p509
(lp510
I88
aI149
aI1046
aI1383
aI1833
aI1934
aI2007
aI2231
aI2337
aI2385
aI2714
aI3799
aI4200
aI4205
aI4352
aI4368
aI5369
aI5449
aI5743
aI5812
aI5876
aI5966
aI5972
aI6037
aI6079
aI7567
aI7828
aI7909
aI7976
aI10106
aI10116
aI10644
aI11733
aI11960
aI12771
aI12807
aI12826
aI12927
aI13025
aI13225
asS'TCCA'
p511
(lp512
I431
aI779
aI909
aI1023
aI1110
aI1438
aI1584
aI1876
aI1955
aI2201
aI2574
aI3119
aI3179
aI3306
aI3610
aI3736
aI3890
aI3940
aI4133
aI4155
aI4320
aI4324
aI4888
aI5853
aI6157
aI6224
aI6261
aI6344
aI6387
aI6841
aI7334
aI7611
aI7649
aI7778
aI7931
aI8107
aI8186
aI8381
aI8574
aI8787
aI8943
aI9031
aI9052
aI9073
aI9261
aI9428
aI9710
aI9800
aI10174
aI10519
aI10982
aI11053
aI11094
aI11166
aI11493
aI11807
aI11919
aI12212
aI12430
aI12678
aI12719
aI12909
aI13347
as.